ARM GAS  C:\Users\kpetr\AppData\Local\Temp\cc6WsH7z.s 			page 1


   1              		.cpu cortex-m4
   2              		.arch armv7e-m
   3              		.fpu fpv4-sp-d16
   4              		.eabi_attribute 27, 1
   5              		.eabi_attribute 28, 1
   6              		.eabi_attribute 20, 1
   7              		.eabi_attribute 21, 1
   8              		.eabi_attribute 23, 3
   9              		.eabi_attribute 24, 1
  10              		.eabi_attribute 25, 1
  11              		.eabi_attribute 26, 1
  12              		.eabi_attribute 30, 1
  13              		.eabi_attribute 34, 1
  14              		.eabi_attribute 18, 4
  15              		.file	"main.c"
  16              		.text
  17              	.Ltext0:
  18              		.cfi_sections	.debug_frame
  19              		.file 1 "Core/Src/main.c"
  20              		.section	.text.MX_GPIO_Init,"ax",%progbits
  21              		.align	1
  22              		.syntax unified
  23              		.thumb
  24              		.thumb_func
  26              	MX_GPIO_Init:
  27              	.LFB142:
   1:Core/Src/main.c **** /* USER CODE BEGIN Header */
   2:Core/Src/main.c **** /**
   3:Core/Src/main.c ****   ******************************************************************************
   4:Core/Src/main.c ****   * @file           : main.c
   5:Core/Src/main.c ****   * @brief          : Main program body
   6:Core/Src/main.c ****   ******************************************************************************
   7:Core/Src/main.c ****   * @attention
   8:Core/Src/main.c ****   *
   9:Core/Src/main.c ****   * Copyright (c) 2024 STMicroelectronics.
  10:Core/Src/main.c ****   * All rights reserved.
  11:Core/Src/main.c ****   *
  12:Core/Src/main.c ****   * This software is licensed under terms that can be found in the LICENSE file
  13:Core/Src/main.c ****   * in the root directory of this software component.
  14:Core/Src/main.c ****   * If no LICENSE file comes with this software, it is provided AS-IS.
  15:Core/Src/main.c ****   *
  16:Core/Src/main.c ****   ******************************************************************************
  17:Core/Src/main.c ****   */
  18:Core/Src/main.c **** /* USER CODE END Header */
  19:Core/Src/main.c **** /* Includes ------------------------------------------------------------------*/
  20:Core/Src/main.c **** #include "main.h"
  21:Core/Src/main.c **** 
  22:Core/Src/main.c **** /* Private includes ----------------------------------------------------------*/
  23:Core/Src/main.c **** /* USER CODE BEGIN Includes */
  24:Core/Src/main.c **** #include <stdio.h>  
  25:Core/Src/main.c **** 
  26:Core/Src/main.c **** #include "ssd1306.h"
  27:Core/Src/main.c **** #include "fonts.h"
  28:Core/Src/main.c **** 
  29:Core/Src/main.c **** #include "globals.h"
  30:Core/Src/main.c **** /* USER CODE END Includes */
  31:Core/Src/main.c **** 
ARM GAS  C:\Users\kpetr\AppData\Local\Temp\cc6WsH7z.s 			page 2


  32:Core/Src/main.c **** /* Private typedef -----------------------------------------------------------*/
  33:Core/Src/main.c **** /* USER CODE BEGIN PTD */
  34:Core/Src/main.c **** 
  35:Core/Src/main.c **** /* USER CODE END PTD */
  36:Core/Src/main.c **** 
  37:Core/Src/main.c **** /* Private define ------------------------------------------------------------*/
  38:Core/Src/main.c **** /* USER CODE BEGIN PD */
  39:Core/Src/main.c **** 
  40:Core/Src/main.c **** /* USER CODE END PD */
  41:Core/Src/main.c **** 
  42:Core/Src/main.c **** /* Private macro -------------------------------------------------------------*/
  43:Core/Src/main.c **** /* USER CODE BEGIN PM */
  44:Core/Src/main.c **** 
  45:Core/Src/main.c **** /* USER CODE END PM */
  46:Core/Src/main.c **** 
  47:Core/Src/main.c **** /* Private variables ---------------------------------------------------------*/
  48:Core/Src/main.c **** I2C_HandleTypeDef hi2c1;
  49:Core/Src/main.c **** 
  50:Core/Src/main.c **** TIM_HandleTypeDef htim2;
  51:Core/Src/main.c **** TIM_HandleTypeDef htim6;
  52:Core/Src/main.c **** TIM_HandleTypeDef htim7;
  53:Core/Src/main.c **** 
  54:Core/Src/main.c **** UART_HandleTypeDef huart2;
  55:Core/Src/main.c **** 
  56:Core/Src/main.c **** /* USER CODE BEGIN PV */
  57:Core/Src/main.c **** #define ENCODER_PULSES_PER_REVOLUTION 1024  // Set this according to your encoder's specification
  58:Core/Src/main.c **** #define TIMER6_INTERVAL_SECONDS 0.25  // This should match how often TIM6 triggers an interrupt
  59:Core/Src/main.c **** 
  60:Core/Src/main.c **** float MAIN_speed = 0;
  61:Core/Src/main.c **** char SPEED_buffer[20];
  62:Core/Src/main.c **** 
  63:Core/Src/main.c **** int frac_part = 0;
  64:Core/Src/main.c **** int int_part = 0;
  65:Core/Src/main.c **** 
  66:Core/Src/main.c **** volatile uint32_t previous_encoder_count = 0;
  67:Core/Src/main.c **** volatile uint32_t previous_encoder_time = 0;
  68:Core/Src/main.c **** volatile float current_rpm = 0.0;
  69:Core/Src/main.c **** 
  70:Core/Src/main.c **** /* USER CODE END PV */
  71:Core/Src/main.c **** 
  72:Core/Src/main.c **** /* Private function prototypes -----------------------------------------------*/
  73:Core/Src/main.c **** void SystemClock_Config(void);
  74:Core/Src/main.c **** static void MX_GPIO_Init(void);
  75:Core/Src/main.c **** static void MX_I2C1_Init(void);
  76:Core/Src/main.c **** static void MX_TIM6_Init(void);
  77:Core/Src/main.c **** static void MX_USART2_UART_Init(void);
  78:Core/Src/main.c **** static void MX_TIM2_Init(void);
  79:Core/Src/main.c **** static void MX_TIM7_Init(void);
  80:Core/Src/main.c **** /* USER CODE BEGIN PFP */
  81:Core/Src/main.c **** void Uart_Transmit(char buffer[20]);
  82:Core/Src/main.c **** void Get_RPM();
  83:Core/Src/main.c **** /* USER CODE END PFP */
  84:Core/Src/main.c **** 
  85:Core/Src/main.c **** /* Private user code ---------------------------------------------------------*/
  86:Core/Src/main.c **** /* USER CODE BEGIN 0 */
  87:Core/Src/main.c **** 
  88:Core/Src/main.c **** /* USER CODE END 0 */
ARM GAS  C:\Users\kpetr\AppData\Local\Temp\cc6WsH7z.s 			page 3


  89:Core/Src/main.c **** 
  90:Core/Src/main.c **** /**
  91:Core/Src/main.c ****   * @brief  The application entry point.
  92:Core/Src/main.c ****   * @retval int
  93:Core/Src/main.c ****   */
  94:Core/Src/main.c **** int main(void)
  95:Core/Src/main.c **** {
  96:Core/Src/main.c ****   /* USER CODE BEGIN 1 */
  97:Core/Src/main.c **** 
  98:Core/Src/main.c ****   /* USER CODE END 1 */
  99:Core/Src/main.c **** 
 100:Core/Src/main.c ****   /* MCU Configuration--------------------------------------------------------*/
 101:Core/Src/main.c **** 
 102:Core/Src/main.c ****   /* Reset of all peripherals, Initializes the Flash interface and the Systick. */
 103:Core/Src/main.c ****   HAL_Init();
 104:Core/Src/main.c **** 
 105:Core/Src/main.c ****   /* USER CODE BEGIN Init */
 106:Core/Src/main.c **** 
 107:Core/Src/main.c ****   /* USER CODE END Init */
 108:Core/Src/main.c **** 
 109:Core/Src/main.c ****   /* Configure the system clock */
 110:Core/Src/main.c ****   SystemClock_Config();
 111:Core/Src/main.c **** 
 112:Core/Src/main.c ****   /* USER CODE BEGIN SysInit */
 113:Core/Src/main.c **** 
 114:Core/Src/main.c ****   /* USER CODE END SysInit */
 115:Core/Src/main.c **** 
 116:Core/Src/main.c ****   /* Initialize all configured peripherals */
 117:Core/Src/main.c ****   MX_GPIO_Init();
 118:Core/Src/main.c ****   MX_I2C1_Init();
 119:Core/Src/main.c ****   MX_TIM6_Init();
 120:Core/Src/main.c ****   MX_USART2_UART_Init();
 121:Core/Src/main.c ****   MX_TIM2_Init();
 122:Core/Src/main.c ****   MX_TIM7_Init();
 123:Core/Src/main.c ****   /* USER CODE BEGIN 2 */
 124:Core/Src/main.c ****  
 125:Core/Src/main.c ****   SSD1306_Init();
 126:Core/Src/main.c ****   if(HAL_TIM_Base_Start_IT(&htim6) != HAL_OK){ //run TIM6 timer
 127:Core/Src/main.c ****     //ErrorHandler();
 128:Core/Src/main.c ****   }
 129:Core/Src/main.c ****   if(HAL_TIM_Base_Start_IT(&htim7) != HAL_OK){ //run TIM6 timer
 130:Core/Src/main.c ****     //ErrorHandler();
 131:Core/Src/main.c ****   }
 132:Core/Src/main.c ****    HAL_TIM_Encoder_Start(&htim2, TIM_CHANNEL_ALL);
 133:Core/Src/main.c **** 
 134:Core/Src/main.c ****   /* USER CODE END 2 */
 135:Core/Src/main.c **** 
 136:Core/Src/main.c ****   /* Infinite loop */
 137:Core/Src/main.c ****   /* USER CODE BEGIN WHILE */
 138:Core/Src/main.c ****   while (1)
 139:Core/Src/main.c ****   {
 140:Core/Src/main.c ****     /* USER CODE END WHILE */
 141:Core/Src/main.c **** 
 142:Core/Src/main.c ****     /* USER CODE BEGIN 3 */
 143:Core/Src/main.c ****     
 144:Core/Src/main.c ****     
 145:Core/Src/main.c ****     
ARM GAS  C:\Users\kpetr\AppData\Local\Temp\cc6WsH7z.s 			page 4


 146:Core/Src/main.c ****     
 147:Core/Src/main.c ****     sprintf(SPEED_buffer, "%d rpm\n",(int)MAIN_speed);
 148:Core/Src/main.c ****     SSD1306_GotoXY(10,10);
 149:Core/Src/main.c ****     SSD1306_Puts(SPEED_buffer,&Font_11x18,1);
 150:Core/Src/main.c **** 
 151:Core/Src/main.c ****   }
 152:Core/Src/main.c ****   /* USER CODE END 3 */
 153:Core/Src/main.c **** }
 154:Core/Src/main.c **** 
 155:Core/Src/main.c **** /**
 156:Core/Src/main.c ****   * @brief System Clock Configuration
 157:Core/Src/main.c ****   * @retval None
 158:Core/Src/main.c ****   */
 159:Core/Src/main.c **** void SystemClock_Config(void)
 160:Core/Src/main.c **** {
 161:Core/Src/main.c ****   RCC_OscInitTypeDef RCC_OscInitStruct = {0};
 162:Core/Src/main.c ****   RCC_ClkInitTypeDef RCC_ClkInitStruct = {0};
 163:Core/Src/main.c **** 
 164:Core/Src/main.c ****   /** Configure the main internal regulator output voltage
 165:Core/Src/main.c ****   */
 166:Core/Src/main.c ****   if (HAL_PWREx_ControlVoltageScaling(PWR_REGULATOR_VOLTAGE_SCALE1) != HAL_OK)
 167:Core/Src/main.c ****   {
 168:Core/Src/main.c ****     Error_Handler();
 169:Core/Src/main.c ****   }
 170:Core/Src/main.c **** 
 171:Core/Src/main.c ****   /** Configure LSE Drive Capability
 172:Core/Src/main.c ****   */
 173:Core/Src/main.c ****   HAL_PWR_EnableBkUpAccess();
 174:Core/Src/main.c ****   __HAL_RCC_LSEDRIVE_CONFIG(RCC_LSEDRIVE_LOW);
 175:Core/Src/main.c **** 
 176:Core/Src/main.c ****   /** Initializes the RCC Oscillators according to the specified parameters
 177:Core/Src/main.c ****   * in the RCC_OscInitTypeDef structure.
 178:Core/Src/main.c ****   */
 179:Core/Src/main.c ****   RCC_OscInitStruct.OscillatorType = RCC_OSCILLATORTYPE_LSE|RCC_OSCILLATORTYPE_MSI;
 180:Core/Src/main.c ****   RCC_OscInitStruct.LSEState = RCC_LSE_ON;
 181:Core/Src/main.c ****   RCC_OscInitStruct.MSIState = RCC_MSI_ON;
 182:Core/Src/main.c ****   RCC_OscInitStruct.MSICalibrationValue = 0;
 183:Core/Src/main.c ****   RCC_OscInitStruct.MSIClockRange = RCC_MSIRANGE_6;
 184:Core/Src/main.c ****   RCC_OscInitStruct.PLL.PLLState = RCC_PLL_ON;
 185:Core/Src/main.c ****   RCC_OscInitStruct.PLL.PLLSource = RCC_PLLSOURCE_MSI;
 186:Core/Src/main.c ****   RCC_OscInitStruct.PLL.PLLM = 1;
 187:Core/Src/main.c ****   RCC_OscInitStruct.PLL.PLLN = 16;
 188:Core/Src/main.c ****   RCC_OscInitStruct.PLL.PLLP = RCC_PLLP_DIV7;
 189:Core/Src/main.c ****   RCC_OscInitStruct.PLL.PLLQ = RCC_PLLQ_DIV2;
 190:Core/Src/main.c ****   RCC_OscInitStruct.PLL.PLLR = RCC_PLLR_DIV2;
 191:Core/Src/main.c ****   if (HAL_RCC_OscConfig(&RCC_OscInitStruct) != HAL_OK)
 192:Core/Src/main.c ****   {
 193:Core/Src/main.c ****     Error_Handler();
 194:Core/Src/main.c ****   }
 195:Core/Src/main.c **** 
 196:Core/Src/main.c ****   /** Initializes the CPU, AHB and APB buses clocks
 197:Core/Src/main.c ****   */
 198:Core/Src/main.c ****   RCC_ClkInitStruct.ClockType = RCC_CLOCKTYPE_HCLK|RCC_CLOCKTYPE_SYSCLK
 199:Core/Src/main.c ****                               |RCC_CLOCKTYPE_PCLK1|RCC_CLOCKTYPE_PCLK2;
 200:Core/Src/main.c ****   RCC_ClkInitStruct.SYSCLKSource = RCC_SYSCLKSOURCE_PLLCLK;
 201:Core/Src/main.c ****   RCC_ClkInitStruct.AHBCLKDivider = RCC_SYSCLK_DIV1;
 202:Core/Src/main.c ****   RCC_ClkInitStruct.APB1CLKDivider = RCC_HCLK_DIV1;
ARM GAS  C:\Users\kpetr\AppData\Local\Temp\cc6WsH7z.s 			page 5


 203:Core/Src/main.c ****   RCC_ClkInitStruct.APB2CLKDivider = RCC_HCLK_DIV1;
 204:Core/Src/main.c **** 
 205:Core/Src/main.c ****   if (HAL_RCC_ClockConfig(&RCC_ClkInitStruct, FLASH_LATENCY_1) != HAL_OK)
 206:Core/Src/main.c ****   {
 207:Core/Src/main.c ****     Error_Handler();
 208:Core/Src/main.c ****   }
 209:Core/Src/main.c **** 
 210:Core/Src/main.c ****   /** Enable MSI Auto calibration
 211:Core/Src/main.c ****   */
 212:Core/Src/main.c ****   HAL_RCCEx_EnableMSIPLLMode();
 213:Core/Src/main.c **** }
 214:Core/Src/main.c **** 
 215:Core/Src/main.c **** /**
 216:Core/Src/main.c ****   * @brief I2C1 Initialization Function
 217:Core/Src/main.c ****   * @param None
 218:Core/Src/main.c ****   * @retval None
 219:Core/Src/main.c ****   */
 220:Core/Src/main.c **** static void MX_I2C1_Init(void)
 221:Core/Src/main.c **** {
 222:Core/Src/main.c **** 
 223:Core/Src/main.c ****   /* USER CODE BEGIN I2C1_Init 0 */
 224:Core/Src/main.c **** 
 225:Core/Src/main.c ****   /* USER CODE END I2C1_Init 0 */
 226:Core/Src/main.c **** 
 227:Core/Src/main.c ****   /* USER CODE BEGIN I2C1_Init 1 */
 228:Core/Src/main.c **** 
 229:Core/Src/main.c ****   /* USER CODE END I2C1_Init 1 */
 230:Core/Src/main.c ****   hi2c1.Instance = I2C1;
 231:Core/Src/main.c ****   hi2c1.Init.Timing = 0x00707CBB;
 232:Core/Src/main.c ****   hi2c1.Init.OwnAddress1 = 0;
 233:Core/Src/main.c ****   hi2c1.Init.AddressingMode = I2C_ADDRESSINGMODE_7BIT;
 234:Core/Src/main.c ****   hi2c1.Init.DualAddressMode = I2C_DUALADDRESS_DISABLE;
 235:Core/Src/main.c ****   hi2c1.Init.OwnAddress2 = 0;
 236:Core/Src/main.c ****   hi2c1.Init.OwnAddress2Masks = I2C_OA2_NOMASK;
 237:Core/Src/main.c ****   hi2c1.Init.GeneralCallMode = I2C_GENERALCALL_DISABLE;
 238:Core/Src/main.c ****   hi2c1.Init.NoStretchMode = I2C_NOSTRETCH_DISABLE;
 239:Core/Src/main.c ****   if (HAL_I2C_Init(&hi2c1) != HAL_OK)
 240:Core/Src/main.c ****   {
 241:Core/Src/main.c ****     Error_Handler();
 242:Core/Src/main.c ****   }
 243:Core/Src/main.c **** 
 244:Core/Src/main.c ****   /** Configure Analogue filter
 245:Core/Src/main.c ****   */
 246:Core/Src/main.c ****   if (HAL_I2CEx_ConfigAnalogFilter(&hi2c1, I2C_ANALOGFILTER_ENABLE) != HAL_OK)
 247:Core/Src/main.c ****   {
 248:Core/Src/main.c ****     Error_Handler();
 249:Core/Src/main.c ****   }
 250:Core/Src/main.c **** 
 251:Core/Src/main.c ****   /** Configure Digital filter
 252:Core/Src/main.c ****   */
 253:Core/Src/main.c ****   if (HAL_I2CEx_ConfigDigitalFilter(&hi2c1, 0) != HAL_OK)
 254:Core/Src/main.c ****   {
 255:Core/Src/main.c ****     Error_Handler();
 256:Core/Src/main.c ****   }
 257:Core/Src/main.c ****   /* USER CODE BEGIN I2C1_Init 2 */
 258:Core/Src/main.c **** 
 259:Core/Src/main.c ****   /* USER CODE END I2C1_Init 2 */
ARM GAS  C:\Users\kpetr\AppData\Local\Temp\cc6WsH7z.s 			page 6


 260:Core/Src/main.c **** 
 261:Core/Src/main.c **** }
 262:Core/Src/main.c **** 
 263:Core/Src/main.c **** /**
 264:Core/Src/main.c ****   * @brief TIM2 Initialization Function
 265:Core/Src/main.c ****   * @param None
 266:Core/Src/main.c ****   * @retval None
 267:Core/Src/main.c ****   */
 268:Core/Src/main.c **** static void MX_TIM2_Init(void)
 269:Core/Src/main.c **** {
 270:Core/Src/main.c **** 
 271:Core/Src/main.c ****   /* USER CODE BEGIN TIM2_Init 0 */
 272:Core/Src/main.c **** 
 273:Core/Src/main.c ****   /* USER CODE END TIM2_Init 0 */
 274:Core/Src/main.c **** 
 275:Core/Src/main.c ****   TIM_Encoder_InitTypeDef sConfig = {0};
 276:Core/Src/main.c ****   TIM_MasterConfigTypeDef sMasterConfig = {0};
 277:Core/Src/main.c **** 
 278:Core/Src/main.c ****   /* USER CODE BEGIN TIM2_Init 1 */
 279:Core/Src/main.c **** 
 280:Core/Src/main.c ****   /* USER CODE END TIM2_Init 1 */
 281:Core/Src/main.c ****   htim2.Instance = TIM2;
 282:Core/Src/main.c ****   htim2.Init.Prescaler = 0;
 283:Core/Src/main.c ****   htim2.Init.CounterMode = TIM_COUNTERMODE_UP;
 284:Core/Src/main.c ****   htim2.Init.Period = 4294967295;
 285:Core/Src/main.c ****   htim2.Init.ClockDivision = TIM_CLOCKDIVISION_DIV1;
 286:Core/Src/main.c ****   htim2.Init.AutoReloadPreload = TIM_AUTORELOAD_PRELOAD_DISABLE;
 287:Core/Src/main.c ****   sConfig.EncoderMode = TIM_ENCODERMODE_TI1;
 288:Core/Src/main.c ****   sConfig.IC1Polarity = TIM_ICPOLARITY_RISING;
 289:Core/Src/main.c ****   sConfig.IC1Selection = TIM_ICSELECTION_DIRECTTI;
 290:Core/Src/main.c ****   sConfig.IC1Prescaler = TIM_ICPSC_DIV1;
 291:Core/Src/main.c ****   sConfig.IC1Filter = 0;
 292:Core/Src/main.c ****   sConfig.IC2Polarity = TIM_ICPOLARITY_RISING;
 293:Core/Src/main.c ****   sConfig.IC2Selection = TIM_ICSELECTION_DIRECTTI;
 294:Core/Src/main.c ****   sConfig.IC2Prescaler = TIM_ICPSC_DIV1;
 295:Core/Src/main.c ****   sConfig.IC2Filter = 0;
 296:Core/Src/main.c ****   if (HAL_TIM_Encoder_Init(&htim2, &sConfig) != HAL_OK)
 297:Core/Src/main.c ****   {
 298:Core/Src/main.c ****     Error_Handler();
 299:Core/Src/main.c ****   }
 300:Core/Src/main.c ****   sMasterConfig.MasterOutputTrigger = TIM_TRGO_RESET;
 301:Core/Src/main.c ****   sMasterConfig.MasterSlaveMode = TIM_MASTERSLAVEMODE_DISABLE;
 302:Core/Src/main.c ****   if (HAL_TIMEx_MasterConfigSynchronization(&htim2, &sMasterConfig) != HAL_OK)
 303:Core/Src/main.c ****   {
 304:Core/Src/main.c ****     Error_Handler();
 305:Core/Src/main.c ****   }
 306:Core/Src/main.c ****   /* USER CODE BEGIN TIM2_Init 2 */
 307:Core/Src/main.c **** 
 308:Core/Src/main.c ****   /* USER CODE END TIM2_Init 2 */
 309:Core/Src/main.c **** 
 310:Core/Src/main.c **** }
 311:Core/Src/main.c **** 
 312:Core/Src/main.c **** /**
 313:Core/Src/main.c ****   * @brief TIM6 Initialization Function
 314:Core/Src/main.c ****   * @param None
 315:Core/Src/main.c ****   * @retval None
 316:Core/Src/main.c ****   */
ARM GAS  C:\Users\kpetr\AppData\Local\Temp\cc6WsH7z.s 			page 7


 317:Core/Src/main.c **** static void MX_TIM6_Init(void)
 318:Core/Src/main.c **** {
 319:Core/Src/main.c **** 
 320:Core/Src/main.c ****   /* USER CODE BEGIN TIM6_Init 0 */
 321:Core/Src/main.c **** 
 322:Core/Src/main.c ****   /* USER CODE END TIM6_Init 0 */
 323:Core/Src/main.c **** 
 324:Core/Src/main.c ****   TIM_MasterConfigTypeDef sMasterConfig = {0};
 325:Core/Src/main.c **** 
 326:Core/Src/main.c ****   /* USER CODE BEGIN TIM6_Init 1 */
 327:Core/Src/main.c **** 
 328:Core/Src/main.c ****   /* USER CODE END TIM6_Init 1 */
 329:Core/Src/main.c ****   htim6.Instance = TIM6;
 330:Core/Src/main.c ****   htim6.Init.Prescaler = 40000;
 331:Core/Src/main.c ****   htim6.Init.CounterMode = TIM_COUNTERMODE_UP;
 332:Core/Src/main.c ****   htim6.Init.Period = 200;
 333:Core/Src/main.c ****   htim6.Init.AutoReloadPreload = TIM_AUTORELOAD_PRELOAD_ENABLE;
 334:Core/Src/main.c ****   if (HAL_TIM_Base_Init(&htim6) != HAL_OK)
 335:Core/Src/main.c ****   {
 336:Core/Src/main.c ****     Error_Handler();
 337:Core/Src/main.c ****   }
 338:Core/Src/main.c ****   sMasterConfig.MasterOutputTrigger = TIM_TRGO_RESET;
 339:Core/Src/main.c ****   sMasterConfig.MasterSlaveMode = TIM_MASTERSLAVEMODE_DISABLE;
 340:Core/Src/main.c ****   if (HAL_TIMEx_MasterConfigSynchronization(&htim6, &sMasterConfig) != HAL_OK)
 341:Core/Src/main.c ****   {
 342:Core/Src/main.c ****     Error_Handler();
 343:Core/Src/main.c ****   }
 344:Core/Src/main.c ****   /* USER CODE BEGIN TIM6_Init 2 */
 345:Core/Src/main.c **** 
 346:Core/Src/main.c ****   /* USER CODE END TIM6_Init 2 */
 347:Core/Src/main.c **** 
 348:Core/Src/main.c **** }
 349:Core/Src/main.c **** 
 350:Core/Src/main.c **** /**
 351:Core/Src/main.c ****   * @brief TIM7 Initialization Function
 352:Core/Src/main.c ****   * @param None
 353:Core/Src/main.c ****   * @retval None
 354:Core/Src/main.c ****   */
 355:Core/Src/main.c **** static void MX_TIM7_Init(void)
 356:Core/Src/main.c **** {
 357:Core/Src/main.c **** 
 358:Core/Src/main.c ****   /* USER CODE BEGIN TIM7_Init 0 */
 359:Core/Src/main.c **** 
 360:Core/Src/main.c ****   /* USER CODE END TIM7_Init 0 */
 361:Core/Src/main.c **** 
 362:Core/Src/main.c ****   TIM_MasterConfigTypeDef sMasterConfig = {0};
 363:Core/Src/main.c **** 
 364:Core/Src/main.c ****   /* USER CODE BEGIN TIM7_Init 1 */
 365:Core/Src/main.c **** 
 366:Core/Src/main.c ****   /* USER CODE END TIM7_Init 1 */
 367:Core/Src/main.c ****   htim7.Instance = TIM7;
 368:Core/Src/main.c ****   htim7.Init.Prescaler = 40000;
 369:Core/Src/main.c ****   htim7.Init.CounterMode = TIM_COUNTERMODE_UP;
 370:Core/Src/main.c ****   htim7.Init.Period = 80;
 371:Core/Src/main.c ****   htim7.Init.AutoReloadPreload = TIM_AUTORELOAD_PRELOAD_ENABLE;
 372:Core/Src/main.c ****   if (HAL_TIM_Base_Init(&htim7) != HAL_OK)
 373:Core/Src/main.c ****   {
ARM GAS  C:\Users\kpetr\AppData\Local\Temp\cc6WsH7z.s 			page 8


 374:Core/Src/main.c ****     Error_Handler();
 375:Core/Src/main.c ****   }
 376:Core/Src/main.c ****   sMasterConfig.MasterOutputTrigger = TIM_TRGO_RESET;
 377:Core/Src/main.c ****   sMasterConfig.MasterSlaveMode = TIM_MASTERSLAVEMODE_DISABLE;
 378:Core/Src/main.c ****   if (HAL_TIMEx_MasterConfigSynchronization(&htim7, &sMasterConfig) != HAL_OK)
 379:Core/Src/main.c ****   {
 380:Core/Src/main.c ****     Error_Handler();
 381:Core/Src/main.c ****   }
 382:Core/Src/main.c ****   /* USER CODE BEGIN TIM7_Init 2 */
 383:Core/Src/main.c **** 
 384:Core/Src/main.c ****   /* USER CODE END TIM7_Init 2 */
 385:Core/Src/main.c **** 
 386:Core/Src/main.c **** }
 387:Core/Src/main.c **** 
 388:Core/Src/main.c **** /**
 389:Core/Src/main.c ****   * @brief USART2 Initialization Function
 390:Core/Src/main.c ****   * @param None
 391:Core/Src/main.c ****   * @retval None
 392:Core/Src/main.c ****   */
 393:Core/Src/main.c **** static void MX_USART2_UART_Init(void)
 394:Core/Src/main.c **** {
 395:Core/Src/main.c **** 
 396:Core/Src/main.c ****   /* USER CODE BEGIN USART2_Init 0 */
 397:Core/Src/main.c **** 
 398:Core/Src/main.c ****   /* USER CODE END USART2_Init 0 */
 399:Core/Src/main.c **** 
 400:Core/Src/main.c ****   /* USER CODE BEGIN USART2_Init 1 */
 401:Core/Src/main.c **** 
 402:Core/Src/main.c ****   /* USER CODE END USART2_Init 1 */
 403:Core/Src/main.c ****   huart2.Instance = USART2;
 404:Core/Src/main.c ****   huart2.Init.BaudRate = 115200;
 405:Core/Src/main.c ****   huart2.Init.WordLength = UART_WORDLENGTH_8B;
 406:Core/Src/main.c ****   huart2.Init.StopBits = UART_STOPBITS_1;
 407:Core/Src/main.c ****   huart2.Init.Parity = UART_PARITY_NONE;
 408:Core/Src/main.c ****   huart2.Init.Mode = UART_MODE_TX_RX;
 409:Core/Src/main.c ****   huart2.Init.HwFlowCtl = UART_HWCONTROL_NONE;
 410:Core/Src/main.c ****   huart2.Init.OverSampling = UART_OVERSAMPLING_16;
 411:Core/Src/main.c ****   huart2.Init.OneBitSampling = UART_ONE_BIT_SAMPLE_DISABLE;
 412:Core/Src/main.c ****   huart2.AdvancedInit.AdvFeatureInit = UART_ADVFEATURE_NO_INIT;
 413:Core/Src/main.c ****   if (HAL_UART_Init(&huart2) != HAL_OK)
 414:Core/Src/main.c ****   {
 415:Core/Src/main.c ****     Error_Handler();
 416:Core/Src/main.c ****   }
 417:Core/Src/main.c ****   /* USER CODE BEGIN USART2_Init 2 */
 418:Core/Src/main.c **** 
 419:Core/Src/main.c ****   /* USER CODE END USART2_Init 2 */
 420:Core/Src/main.c **** 
 421:Core/Src/main.c **** }
 422:Core/Src/main.c **** 
 423:Core/Src/main.c **** /**
 424:Core/Src/main.c ****   * @brief GPIO Initialization Function
 425:Core/Src/main.c ****   * @param None
 426:Core/Src/main.c ****   * @retval None
 427:Core/Src/main.c ****   */
 428:Core/Src/main.c **** static void MX_GPIO_Init(void)
 429:Core/Src/main.c **** {
  28              		.loc 1 429 1 view -0
ARM GAS  C:\Users\kpetr\AppData\Local\Temp\cc6WsH7z.s 			page 9


  29              		.cfi_startproc
  30              		@ args = 0, pretend = 0, frame = 32
  31              		@ frame_needed = 0, uses_anonymous_args = 0
  32 0000 70B5     		push	{r4, r5, r6, lr}
  33              		.cfi_def_cfa_offset 16
  34              		.cfi_offset 4, -16
  35              		.cfi_offset 5, -12
  36              		.cfi_offset 6, -8
  37              		.cfi_offset 14, -4
  38 0002 88B0     		sub	sp, sp, #32
  39              		.cfi_def_cfa_offset 48
 430:Core/Src/main.c ****   GPIO_InitTypeDef GPIO_InitStruct = {0};
  40              		.loc 1 430 3 view .LVU1
  41              		.loc 1 430 20 is_stmt 0 view .LVU2
  42 0004 0024     		movs	r4, #0
  43 0006 0394     		str	r4, [sp, #12]
  44 0008 0494     		str	r4, [sp, #16]
  45 000a 0594     		str	r4, [sp, #20]
  46 000c 0694     		str	r4, [sp, #24]
  47 000e 0794     		str	r4, [sp, #28]
 431:Core/Src/main.c **** /* USER CODE BEGIN MX_GPIO_Init_1 */
 432:Core/Src/main.c **** /* USER CODE END MX_GPIO_Init_1 */
 433:Core/Src/main.c **** 
 434:Core/Src/main.c ****   /* GPIO Ports Clock Enable */
 435:Core/Src/main.c ****   __HAL_RCC_GPIOC_CLK_ENABLE();
  48              		.loc 1 435 3 is_stmt 1 view .LVU3
  49              	.LBB4:
  50              		.loc 1 435 3 view .LVU4
  51              		.loc 1 435 3 view .LVU5
  52 0010 224B     		ldr	r3, .L3
  53 0012 DA6C     		ldr	r2, [r3, #76]
  54 0014 42F00402 		orr	r2, r2, #4
  55 0018 DA64     		str	r2, [r3, #76]
  56              		.loc 1 435 3 view .LVU6
  57 001a DA6C     		ldr	r2, [r3, #76]
  58 001c 02F00402 		and	r2, r2, #4
  59 0020 0092     		str	r2, [sp]
  60              		.loc 1 435 3 view .LVU7
  61 0022 009A     		ldr	r2, [sp]
  62              	.LBE4:
  63              		.loc 1 435 3 view .LVU8
 436:Core/Src/main.c ****   __HAL_RCC_GPIOA_CLK_ENABLE();
  64              		.loc 1 436 3 view .LVU9
  65              	.LBB5:
  66              		.loc 1 436 3 view .LVU10
  67              		.loc 1 436 3 view .LVU11
  68 0024 DA6C     		ldr	r2, [r3, #76]
  69 0026 42F00102 		orr	r2, r2, #1
  70 002a DA64     		str	r2, [r3, #76]
  71              		.loc 1 436 3 view .LVU12
  72 002c DA6C     		ldr	r2, [r3, #76]
  73 002e 02F00102 		and	r2, r2, #1
  74 0032 0192     		str	r2, [sp, #4]
  75              		.loc 1 436 3 view .LVU13
  76 0034 019A     		ldr	r2, [sp, #4]
  77              	.LBE5:
  78              		.loc 1 436 3 view .LVU14
ARM GAS  C:\Users\kpetr\AppData\Local\Temp\cc6WsH7z.s 			page 10


 437:Core/Src/main.c ****   __HAL_RCC_GPIOB_CLK_ENABLE();
  79              		.loc 1 437 3 view .LVU15
  80              	.LBB6:
  81              		.loc 1 437 3 view .LVU16
  82              		.loc 1 437 3 view .LVU17
  83 0036 DA6C     		ldr	r2, [r3, #76]
  84 0038 42F00202 		orr	r2, r2, #2
  85 003c DA64     		str	r2, [r3, #76]
  86              		.loc 1 437 3 view .LVU18
  87 003e DB6C     		ldr	r3, [r3, #76]
  88 0040 03F00203 		and	r3, r3, #2
  89 0044 0293     		str	r3, [sp, #8]
  90              		.loc 1 437 3 view .LVU19
  91 0046 029B     		ldr	r3, [sp, #8]
  92              	.LBE6:
  93              		.loc 1 437 3 view .LVU20
 438:Core/Src/main.c **** 
 439:Core/Src/main.c ****   /*Configure GPIO pin Output Level */
 440:Core/Src/main.c ****   HAL_GPIO_WritePin(AS5047P_SS_GPIO_Port, AS5047P_SS_Pin, GPIO_PIN_RESET);
  94              		.loc 1 440 3 view .LVU21
  95 0048 2246     		mov	r2, r4
  96 004a 1021     		movs	r1, #16
  97 004c 4FF09040 		mov	r0, #1207959552
  98 0050 FFF7FEFF 		bl	HAL_GPIO_WritePin
  99              	.LVL0:
 441:Core/Src/main.c **** 
 442:Core/Src/main.c ****   /*Configure GPIO pin Output Level */
 443:Core/Src/main.c ****   HAL_GPIO_WritePin(LD3_GPIO_Port, LD3_Pin, GPIO_PIN_RESET);
 100              		.loc 1 443 3 view .LVU22
 101 0054 124D     		ldr	r5, .L3+4
 102 0056 2246     		mov	r2, r4
 103 0058 0821     		movs	r1, #8
 104 005a 2846     		mov	r0, r5
 105 005c FFF7FEFF 		bl	HAL_GPIO_WritePin
 106              	.LVL1:
 444:Core/Src/main.c **** 
 445:Core/Src/main.c ****   /*Configure GPIO pin : AS5047P_SS_Pin */
 446:Core/Src/main.c ****   GPIO_InitStruct.Pin = AS5047P_SS_Pin;
 107              		.loc 1 446 3 view .LVU23
 108              		.loc 1 446 23 is_stmt 0 view .LVU24
 109 0060 1023     		movs	r3, #16
 110 0062 0393     		str	r3, [sp, #12]
 447:Core/Src/main.c ****   GPIO_InitStruct.Mode = GPIO_MODE_OUTPUT_PP;
 111              		.loc 1 447 3 is_stmt 1 view .LVU25
 112              		.loc 1 447 24 is_stmt 0 view .LVU26
 113 0064 0126     		movs	r6, #1
 114 0066 0496     		str	r6, [sp, #16]
 448:Core/Src/main.c ****   GPIO_InitStruct.Pull = GPIO_NOPULL;
 115              		.loc 1 448 3 is_stmt 1 view .LVU27
 116              		.loc 1 448 24 is_stmt 0 view .LVU28
 117 0068 0594     		str	r4, [sp, #20]
 449:Core/Src/main.c ****   GPIO_InitStruct.Speed = GPIO_SPEED_FREQ_LOW;
 118              		.loc 1 449 3 is_stmt 1 view .LVU29
 119              		.loc 1 449 25 is_stmt 0 view .LVU30
 120 006a 0694     		str	r4, [sp, #24]
 450:Core/Src/main.c ****   HAL_GPIO_Init(AS5047P_SS_GPIO_Port, &GPIO_InitStruct);
 121              		.loc 1 450 3 is_stmt 1 view .LVU31
ARM GAS  C:\Users\kpetr\AppData\Local\Temp\cc6WsH7z.s 			page 11


 122 006c 03A9     		add	r1, sp, #12
 123 006e 4FF09040 		mov	r0, #1207959552
 124 0072 FFF7FEFF 		bl	HAL_GPIO_Init
 125              	.LVL2:
 451:Core/Src/main.c **** 
 452:Core/Src/main.c ****   /*Configure GPIO pin : LD3_Pin */
 453:Core/Src/main.c ****   GPIO_InitStruct.Pin = LD3_Pin;
 126              		.loc 1 453 3 view .LVU32
 127              		.loc 1 453 23 is_stmt 0 view .LVU33
 128 0076 0823     		movs	r3, #8
 129 0078 0393     		str	r3, [sp, #12]
 454:Core/Src/main.c ****   GPIO_InitStruct.Mode = GPIO_MODE_OUTPUT_PP;
 130              		.loc 1 454 3 is_stmt 1 view .LVU34
 131              		.loc 1 454 24 is_stmt 0 view .LVU35
 132 007a 0496     		str	r6, [sp, #16]
 455:Core/Src/main.c ****   GPIO_InitStruct.Pull = GPIO_NOPULL;
 133              		.loc 1 455 3 is_stmt 1 view .LVU36
 134              		.loc 1 455 24 is_stmt 0 view .LVU37
 135 007c 0594     		str	r4, [sp, #20]
 456:Core/Src/main.c ****   GPIO_InitStruct.Speed = GPIO_SPEED_FREQ_LOW;
 136              		.loc 1 456 3 is_stmt 1 view .LVU38
 137              		.loc 1 456 25 is_stmt 0 view .LVU39
 138 007e 0694     		str	r4, [sp, #24]
 457:Core/Src/main.c ****   HAL_GPIO_Init(LD3_GPIO_Port, &GPIO_InitStruct);
 139              		.loc 1 457 3 is_stmt 1 view .LVU40
 140 0080 03A9     		add	r1, sp, #12
 141 0082 2846     		mov	r0, r5
 142 0084 FFF7FEFF 		bl	HAL_GPIO_Init
 143              	.LVL3:
 458:Core/Src/main.c **** 
 459:Core/Src/main.c ****   /*Configure GPIO pin : ABI_I_Pin */
 460:Core/Src/main.c ****   GPIO_InitStruct.Pin = ABI_I_Pin;
 144              		.loc 1 460 3 view .LVU41
 145              		.loc 1 460 23 is_stmt 0 view .LVU42
 146 0088 2023     		movs	r3, #32
 147 008a 0393     		str	r3, [sp, #12]
 461:Core/Src/main.c ****   GPIO_InitStruct.Mode = GPIO_MODE_INPUT;
 148              		.loc 1 461 3 is_stmt 1 view .LVU43
 149              		.loc 1 461 24 is_stmt 0 view .LVU44
 150 008c 0494     		str	r4, [sp, #16]
 462:Core/Src/main.c ****   GPIO_InitStruct.Pull = GPIO_NOPULL;
 151              		.loc 1 462 3 is_stmt 1 view .LVU45
 152              		.loc 1 462 24 is_stmt 0 view .LVU46
 153 008e 0594     		str	r4, [sp, #20]
 463:Core/Src/main.c ****   HAL_GPIO_Init(ABI_I_GPIO_Port, &GPIO_InitStruct);
 154              		.loc 1 463 3 is_stmt 1 view .LVU47
 155 0090 03A9     		add	r1, sp, #12
 156 0092 2846     		mov	r0, r5
 157 0094 FFF7FEFF 		bl	HAL_GPIO_Init
 158              	.LVL4:
 464:Core/Src/main.c **** 
 465:Core/Src/main.c **** /* USER CODE BEGIN MX_GPIO_Init_2 */
 466:Core/Src/main.c **** /* USER CODE END MX_GPIO_Init_2 */
 467:Core/Src/main.c **** }
 159              		.loc 1 467 1 is_stmt 0 view .LVU48
 160 0098 08B0     		add	sp, sp, #32
 161              		.cfi_def_cfa_offset 16
ARM GAS  C:\Users\kpetr\AppData\Local\Temp\cc6WsH7z.s 			page 12


 162              		@ sp needed
 163 009a 70BD     		pop	{r4, r5, r6, pc}
 164              	.L4:
 165              		.align	2
 166              	.L3:
 167 009c 00100240 		.word	1073876992
 168 00a0 00040048 		.word	1207960576
 169              		.cfi_endproc
 170              	.LFE142:
 172              		.section	.text.Uart_Transmit,"ax",%progbits
 173              		.align	1
 174              		.global	Uart_Transmit
 175              		.syntax unified
 176              		.thumb
 177              		.thumb_func
 179              	Uart_Transmit:
 180              	.LVL5:
 181              	.LFB143:
 468:Core/Src/main.c **** 
 469:Core/Src/main.c **** /* USER CODE BEGIN 4 */
 470:Core/Src/main.c **** void Uart_Transmit(char buffer[20]){
 182              		.loc 1 470 36 is_stmt 1 view -0
 183              		.cfi_startproc
 184              		@ args = 0, pretend = 0, frame = 0
 185              		@ frame_needed = 0, uses_anonymous_args = 0
 186              		.loc 1 470 36 is_stmt 0 view .LVU50
 187 0000 10B5     		push	{r4, lr}
 188              		.cfi_def_cfa_offset 8
 189              		.cfi_offset 4, -8
 190              		.cfi_offset 14, -4
 191 0002 0446     		mov	r4, r0
 471:Core/Src/main.c ****   HAL_UART_Transmit(&huart2, (uint8_t *)buffer, strlen(buffer), HAL_MAX_DELAY);
 192              		.loc 1 471 3 is_stmt 1 view .LVU51
 193              		.loc 1 471 49 is_stmt 0 view .LVU52
 194 0004 FFF7FEFF 		bl	strlen
 195              	.LVL6:
 196              		.loc 1 471 3 discriminator 1 view .LVU53
 197 0008 4FF0FF33 		mov	r3, #-1
 198 000c 82B2     		uxth	r2, r0
 199 000e 2146     		mov	r1, r4
 200 0010 0348     		ldr	r0, .L7
 201 0012 FFF7FEFF 		bl	HAL_UART_Transmit
 202              	.LVL7:
 472:Core/Src/main.c ****   HAL_GPIO_TogglePin(GPIOB, GPIO_PIN_3);
 203              		.loc 1 472 3 is_stmt 1 view .LVU54
 204 0016 0821     		movs	r1, #8
 205 0018 0248     		ldr	r0, .L7+4
 206 001a FFF7FEFF 		bl	HAL_GPIO_TogglePin
 207              	.LVL8:
 473:Core/Src/main.c **** }
 208              		.loc 1 473 1 is_stmt 0 view .LVU55
 209 001e 10BD     		pop	{r4, pc}
 210              	.LVL9:
 211              	.L8:
 212              		.loc 1 473 1 view .LVU56
 213              		.align	2
 214              	.L7:
ARM GAS  C:\Users\kpetr\AppData\Local\Temp\cc6WsH7z.s 			page 13


 215 0020 00000000 		.word	huart2
 216 0024 00040048 		.word	1207960576
 217              		.cfi_endproc
 218              	.LFE143:
 220              		.global	__aeabi_ui2d
 221              		.global	__aeabi_ddiv
 222              		.global	__aeabi_dmul
 223              		.global	__aeabi_d2f
 224              		.section	.text.Get_RPM,"ax",%progbits
 225              		.align	1
 226              		.global	Get_RPM
 227              		.syntax unified
 228              		.thumb
 229              		.thumb_func
 231              	Get_RPM:
 232              	.LFB144:
 474:Core/Src/main.c **** 
 475:Core/Src/main.c **** void Get_RPM(){
 233              		.loc 1 475 15 is_stmt 1 view -0
 234              		.cfi_startproc
 235              		@ args = 0, pretend = 0, frame = 0
 236              		@ frame_needed = 0, uses_anonymous_args = 0
 237 0000 38B5     		push	{r3, r4, r5, lr}
 238              		.cfi_def_cfa_offset 16
 239              		.cfi_offset 3, -16
 240              		.cfi_offset 4, -12
 241              		.cfi_offset 5, -8
 242              		.cfi_offset 14, -4
 476:Core/Src/main.c ****   static uint32_t lastTicks = 0;
 243              		.loc 1 476 3 view .LVU58
 477:Core/Src/main.c ****   static uint32_t lastCount = 0;
 244              		.loc 1 477 3 view .LVU59
 478:Core/Src/main.c ****   uint32_t ticks = HAL_GetTick();
 245              		.loc 1 478 3 view .LVU60
 246              		.loc 1 478 20 is_stmt 0 view .LVU61
 247 0002 FFF7FEFF 		bl	HAL_GetTick
 248              	.LVL10:
 479:Core/Src/main.c **** 
 480:Core/Src/main.c ****   if(ticks - lastTicks > 0.1){
 249              		.loc 1 480 3 is_stmt 1 view .LVU62
 250              		.loc 1 480 24 is_stmt 0 view .LVU63
 251 0006 104B     		ldr	r3, .L12+8
 252 0008 1B68     		ldr	r3, [r3]
 253              		.loc 1 480 5 view .LVU64
 254 000a 8342     		cmp	r3, r0
 255 000c 17D0     		beq	.L9
 256              	.LBB7:
 481:Core/Src/main.c ****         lastTicks = ticks;
 257              		.loc 1 481 9 is_stmt 1 view .LVU65
 258              		.loc 1 481 19 is_stmt 0 view .LVU66
 259 000e 0E4B     		ldr	r3, .L12+8
 260 0010 1860     		str	r0, [r3]
 482:Core/Src/main.c ****         uint32_t count = TIM2->CNT;
 261              		.loc 1 482 9 is_stmt 1 view .LVU67
 262              		.loc 1 482 18 is_stmt 0 view .LVU68
 263 0012 4FF08043 		mov	r3, #1073741824
 264 0016 5D6A     		ldr	r5, [r3, #36]
ARM GAS  C:\Users\kpetr\AppData\Local\Temp\cc6WsH7z.s 			page 14


 265              	.LVL11:
 483:Core/Src/main.c ****         double tmp = count - lastCount;
 266              		.loc 1 483 9 is_stmt 1 view .LVU69
 267              		.loc 1 483 28 is_stmt 0 view .LVU70
 268 0018 0C4C     		ldr	r4, .L12+12
 269 001a 2068     		ldr	r0, [r4]
 270              	.LVL12:
 271              		.loc 1 483 16 view .LVU71
 272 001c 281A     		subs	r0, r5, r0
 273 001e FFF7FEFF 		bl	__aeabi_ui2d
 274              	.LVL13:
 484:Core/Src/main.c ****         lastCount = count;
 275              		.loc 1 484 9 is_stmt 1 view .LVU72
 276              		.loc 1 484 19 is_stmt 0 view .LVU73
 277 0022 2560     		str	r5, [r4]
 485:Core/Src/main.c ****         MAIN_speed = (tmp / 0.1)*ENCODER_PULSES_PER_REVOLUTION;
 278              		.loc 1 485 9 is_stmt 1 view .LVU74
 279              		.loc 1 485 27 is_stmt 0 view .LVU75
 280 0024 06A3     		adr	r3, .L12
 281 0026 D3E90023 		ldrd	r2, [r3]
 282 002a FFF7FEFF 		bl	__aeabi_ddiv
 283              	.LVL14:
 284              		.loc 1 485 33 view .LVU76
 285 002e 0022     		movs	r2, #0
 286 0030 074B     		ldr	r3, .L12+16
 287 0032 FFF7FEFF 		bl	__aeabi_dmul
 288              	.LVL15:
 289 0036 FFF7FEFF 		bl	__aeabi_d2f
 290              	.LVL16:
 291              		.loc 1 485 20 view .LVU77
 292 003a 064B     		ldr	r3, .L12+20
 293 003c 1860     		str	r0, [r3]	@ float
 294              	.LVL17:
 295              	.L9:
 296              		.loc 1 485 20 view .LVU78
 297              	.LBE7:
 486:Core/Src/main.c ****   }
 487:Core/Src/main.c **** 
 488:Core/Src/main.c **** 
 489:Core/Src/main.c **** }
 298              		.loc 1 489 1 view .LVU79
 299 003e 38BD     		pop	{r3, r4, r5, pc}
 300              	.L13:
 301              		.align	3
 302              	.L12:
 303 0040 9A999999 		.word	-1717986918
 304 0044 9999B93F 		.word	1069128089
 305 0048 00000000 		.word	lastTicks.1
 306 004c 00000000 		.word	lastCount.0
 307 0050 00009040 		.word	1083179008
 308 0054 00000000 		.word	MAIN_speed
 309              		.cfi_endproc
 310              	.LFE144:
 312              		.section	.text.Error_Handler,"ax",%progbits
 313              		.align	1
 314              		.global	Error_Handler
 315              		.syntax unified
ARM GAS  C:\Users\kpetr\AppData\Local\Temp\cc6WsH7z.s 			page 15


 316              		.thumb
 317              		.thumb_func
 319              	Error_Handler:
 320              	.LFB145:
 490:Core/Src/main.c **** /* USER CODE END 4 */
 491:Core/Src/main.c **** 
 492:Core/Src/main.c **** /**
 493:Core/Src/main.c ****   * @brief  This function is executed in case of error occurrence.
 494:Core/Src/main.c ****   * @retval None
 495:Core/Src/main.c ****   */
 496:Core/Src/main.c **** void Error_Handler(void)
 497:Core/Src/main.c **** {
 321              		.loc 1 497 1 is_stmt 1 view -0
 322              		.cfi_startproc
 323              		@ Volatile: function does not return.
 324              		@ args = 0, pretend = 0, frame = 0
 325              		@ frame_needed = 0, uses_anonymous_args = 0
 326              		@ link register save eliminated.
 498:Core/Src/main.c ****   /* USER CODE BEGIN Error_Handler_Debug */
 499:Core/Src/main.c ****   /* User can add his own implementation to report the HAL error return state */
 500:Core/Src/main.c ****   __disable_irq();
 327              		.loc 1 500 3 view .LVU81
 328              	.LBB8:
 329              	.LBI8:
 330              		.file 2 "Drivers/CMSIS/Include/cmsis_gcc.h"
   1:Drivers/CMSIS/Include/cmsis_gcc.h **** /**************************************************************************//**
   2:Drivers/CMSIS/Include/cmsis_gcc.h ****  * @file     cmsis_gcc.h
   3:Drivers/CMSIS/Include/cmsis_gcc.h ****  * @brief    CMSIS compiler GCC header file
   4:Drivers/CMSIS/Include/cmsis_gcc.h ****  * @version  V5.2.0
   5:Drivers/CMSIS/Include/cmsis_gcc.h ****  * @date     08. May 2019
   6:Drivers/CMSIS/Include/cmsis_gcc.h ****  ******************************************************************************/
   7:Drivers/CMSIS/Include/cmsis_gcc.h **** /*
   8:Drivers/CMSIS/Include/cmsis_gcc.h ****  * Copyright (c) 2009-2019 Arm Limited. All rights reserved.
   9:Drivers/CMSIS/Include/cmsis_gcc.h ****  *
  10:Drivers/CMSIS/Include/cmsis_gcc.h ****  * SPDX-License-Identifier: Apache-2.0
  11:Drivers/CMSIS/Include/cmsis_gcc.h ****  *
  12:Drivers/CMSIS/Include/cmsis_gcc.h ****  * Licensed under the Apache License, Version 2.0 (the License); you may
  13:Drivers/CMSIS/Include/cmsis_gcc.h ****  * not use this file except in compliance with the License.
  14:Drivers/CMSIS/Include/cmsis_gcc.h ****  * You may obtain a copy of the License at
  15:Drivers/CMSIS/Include/cmsis_gcc.h ****  *
  16:Drivers/CMSIS/Include/cmsis_gcc.h ****  * www.apache.org/licenses/LICENSE-2.0
  17:Drivers/CMSIS/Include/cmsis_gcc.h ****  *
  18:Drivers/CMSIS/Include/cmsis_gcc.h ****  * Unless required by applicable law or agreed to in writing, software
  19:Drivers/CMSIS/Include/cmsis_gcc.h ****  * distributed under the License is distributed on an AS IS BASIS, WITHOUT
  20:Drivers/CMSIS/Include/cmsis_gcc.h ****  * WARRANTIES OR CONDITIONS OF ANY KIND, either express or implied.
  21:Drivers/CMSIS/Include/cmsis_gcc.h ****  * See the License for the specific language governing permissions and
  22:Drivers/CMSIS/Include/cmsis_gcc.h ****  * limitations under the License.
  23:Drivers/CMSIS/Include/cmsis_gcc.h ****  */
  24:Drivers/CMSIS/Include/cmsis_gcc.h **** 
  25:Drivers/CMSIS/Include/cmsis_gcc.h **** #ifndef __CMSIS_GCC_H
  26:Drivers/CMSIS/Include/cmsis_gcc.h **** #define __CMSIS_GCC_H
  27:Drivers/CMSIS/Include/cmsis_gcc.h **** 
  28:Drivers/CMSIS/Include/cmsis_gcc.h **** /* ignore some GCC warnings */
  29:Drivers/CMSIS/Include/cmsis_gcc.h **** #pragma GCC diagnostic push
  30:Drivers/CMSIS/Include/cmsis_gcc.h **** #pragma GCC diagnostic ignored "-Wsign-conversion"
  31:Drivers/CMSIS/Include/cmsis_gcc.h **** #pragma GCC diagnostic ignored "-Wconversion"
  32:Drivers/CMSIS/Include/cmsis_gcc.h **** #pragma GCC diagnostic ignored "-Wunused-parameter"
ARM GAS  C:\Users\kpetr\AppData\Local\Temp\cc6WsH7z.s 			page 16


  33:Drivers/CMSIS/Include/cmsis_gcc.h **** 
  34:Drivers/CMSIS/Include/cmsis_gcc.h **** /* Fallback for __has_builtin */
  35:Drivers/CMSIS/Include/cmsis_gcc.h **** #ifndef __has_builtin
  36:Drivers/CMSIS/Include/cmsis_gcc.h ****   #define __has_builtin(x) (0)
  37:Drivers/CMSIS/Include/cmsis_gcc.h **** #endif
  38:Drivers/CMSIS/Include/cmsis_gcc.h **** 
  39:Drivers/CMSIS/Include/cmsis_gcc.h **** /* CMSIS compiler specific defines */
  40:Drivers/CMSIS/Include/cmsis_gcc.h **** #ifndef   __ASM
  41:Drivers/CMSIS/Include/cmsis_gcc.h ****   #define __ASM                                  __asm
  42:Drivers/CMSIS/Include/cmsis_gcc.h **** #endif
  43:Drivers/CMSIS/Include/cmsis_gcc.h **** #ifndef   __INLINE
  44:Drivers/CMSIS/Include/cmsis_gcc.h ****   #define __INLINE                               inline
  45:Drivers/CMSIS/Include/cmsis_gcc.h **** #endif
  46:Drivers/CMSIS/Include/cmsis_gcc.h **** #ifndef   __STATIC_INLINE
  47:Drivers/CMSIS/Include/cmsis_gcc.h ****   #define __STATIC_INLINE                        static inline
  48:Drivers/CMSIS/Include/cmsis_gcc.h **** #endif
  49:Drivers/CMSIS/Include/cmsis_gcc.h **** #ifndef   __STATIC_FORCEINLINE                 
  50:Drivers/CMSIS/Include/cmsis_gcc.h ****   #define __STATIC_FORCEINLINE                   __attribute__((always_inline)) static inline
  51:Drivers/CMSIS/Include/cmsis_gcc.h **** #endif                                           
  52:Drivers/CMSIS/Include/cmsis_gcc.h **** #ifndef   __NO_RETURN
  53:Drivers/CMSIS/Include/cmsis_gcc.h ****   #define __NO_RETURN                            __attribute__((__noreturn__))
  54:Drivers/CMSIS/Include/cmsis_gcc.h **** #endif
  55:Drivers/CMSIS/Include/cmsis_gcc.h **** #ifndef   __USED
  56:Drivers/CMSIS/Include/cmsis_gcc.h ****   #define __USED                                 __attribute__((used))
  57:Drivers/CMSIS/Include/cmsis_gcc.h **** #endif
  58:Drivers/CMSIS/Include/cmsis_gcc.h **** #ifndef   __WEAK
  59:Drivers/CMSIS/Include/cmsis_gcc.h ****   #define __WEAK                                 __attribute__((weak))
  60:Drivers/CMSIS/Include/cmsis_gcc.h **** #endif
  61:Drivers/CMSIS/Include/cmsis_gcc.h **** #ifndef   __PACKED
  62:Drivers/CMSIS/Include/cmsis_gcc.h ****   #define __PACKED                               __attribute__((packed, aligned(1)))
  63:Drivers/CMSIS/Include/cmsis_gcc.h **** #endif
  64:Drivers/CMSIS/Include/cmsis_gcc.h **** #ifndef   __PACKED_STRUCT
  65:Drivers/CMSIS/Include/cmsis_gcc.h ****   #define __PACKED_STRUCT                        struct __attribute__((packed, aligned(1)))
  66:Drivers/CMSIS/Include/cmsis_gcc.h **** #endif
  67:Drivers/CMSIS/Include/cmsis_gcc.h **** #ifndef   __PACKED_UNION
  68:Drivers/CMSIS/Include/cmsis_gcc.h ****   #define __PACKED_UNION                         union __attribute__((packed, aligned(1)))
  69:Drivers/CMSIS/Include/cmsis_gcc.h **** #endif
  70:Drivers/CMSIS/Include/cmsis_gcc.h **** #ifndef   __UNALIGNED_UINT32        /* deprecated */
  71:Drivers/CMSIS/Include/cmsis_gcc.h ****   #pragma GCC diagnostic push
  72:Drivers/CMSIS/Include/cmsis_gcc.h ****   #pragma GCC diagnostic ignored "-Wpacked"
  73:Drivers/CMSIS/Include/cmsis_gcc.h ****   #pragma GCC diagnostic ignored "-Wattributes"
  74:Drivers/CMSIS/Include/cmsis_gcc.h ****   struct __attribute__((packed)) T_UINT32 { uint32_t v; };
  75:Drivers/CMSIS/Include/cmsis_gcc.h ****   #pragma GCC diagnostic pop
  76:Drivers/CMSIS/Include/cmsis_gcc.h ****   #define __UNALIGNED_UINT32(x)                  (((struct T_UINT32 *)(x))->v)
  77:Drivers/CMSIS/Include/cmsis_gcc.h **** #endif
  78:Drivers/CMSIS/Include/cmsis_gcc.h **** #ifndef   __UNALIGNED_UINT16_WRITE
  79:Drivers/CMSIS/Include/cmsis_gcc.h ****   #pragma GCC diagnostic push
  80:Drivers/CMSIS/Include/cmsis_gcc.h ****   #pragma GCC diagnostic ignored "-Wpacked"
  81:Drivers/CMSIS/Include/cmsis_gcc.h ****   #pragma GCC diagnostic ignored "-Wattributes"
  82:Drivers/CMSIS/Include/cmsis_gcc.h ****   __PACKED_STRUCT T_UINT16_WRITE { uint16_t v; };
  83:Drivers/CMSIS/Include/cmsis_gcc.h ****   #pragma GCC diagnostic pop
  84:Drivers/CMSIS/Include/cmsis_gcc.h ****   #define __UNALIGNED_UINT16_WRITE(addr, val)    (void)((((struct T_UINT16_WRITE *)(void *)(addr))-
  85:Drivers/CMSIS/Include/cmsis_gcc.h **** #endif
  86:Drivers/CMSIS/Include/cmsis_gcc.h **** #ifndef   __UNALIGNED_UINT16_READ
  87:Drivers/CMSIS/Include/cmsis_gcc.h ****   #pragma GCC diagnostic push
  88:Drivers/CMSIS/Include/cmsis_gcc.h ****   #pragma GCC diagnostic ignored "-Wpacked"
  89:Drivers/CMSIS/Include/cmsis_gcc.h ****   #pragma GCC diagnostic ignored "-Wattributes"
ARM GAS  C:\Users\kpetr\AppData\Local\Temp\cc6WsH7z.s 			page 17


  90:Drivers/CMSIS/Include/cmsis_gcc.h ****   __PACKED_STRUCT T_UINT16_READ { uint16_t v; };
  91:Drivers/CMSIS/Include/cmsis_gcc.h ****   #pragma GCC diagnostic pop
  92:Drivers/CMSIS/Include/cmsis_gcc.h ****   #define __UNALIGNED_UINT16_READ(addr)          (((const struct T_UINT16_READ *)(const void *)(add
  93:Drivers/CMSIS/Include/cmsis_gcc.h **** #endif
  94:Drivers/CMSIS/Include/cmsis_gcc.h **** #ifndef   __UNALIGNED_UINT32_WRITE
  95:Drivers/CMSIS/Include/cmsis_gcc.h ****   #pragma GCC diagnostic push
  96:Drivers/CMSIS/Include/cmsis_gcc.h ****   #pragma GCC diagnostic ignored "-Wpacked"
  97:Drivers/CMSIS/Include/cmsis_gcc.h ****   #pragma GCC diagnostic ignored "-Wattributes"
  98:Drivers/CMSIS/Include/cmsis_gcc.h ****   __PACKED_STRUCT T_UINT32_WRITE { uint32_t v; };
  99:Drivers/CMSIS/Include/cmsis_gcc.h ****   #pragma GCC diagnostic pop
 100:Drivers/CMSIS/Include/cmsis_gcc.h ****   #define __UNALIGNED_UINT32_WRITE(addr, val)    (void)((((struct T_UINT32_WRITE *)(void *)(addr))-
 101:Drivers/CMSIS/Include/cmsis_gcc.h **** #endif
 102:Drivers/CMSIS/Include/cmsis_gcc.h **** #ifndef   __UNALIGNED_UINT32_READ
 103:Drivers/CMSIS/Include/cmsis_gcc.h ****   #pragma GCC diagnostic push
 104:Drivers/CMSIS/Include/cmsis_gcc.h ****   #pragma GCC diagnostic ignored "-Wpacked"
 105:Drivers/CMSIS/Include/cmsis_gcc.h ****   #pragma GCC diagnostic ignored "-Wattributes"
 106:Drivers/CMSIS/Include/cmsis_gcc.h ****   __PACKED_STRUCT T_UINT32_READ { uint32_t v; };
 107:Drivers/CMSIS/Include/cmsis_gcc.h ****   #pragma GCC diagnostic pop
 108:Drivers/CMSIS/Include/cmsis_gcc.h ****   #define __UNALIGNED_UINT32_READ(addr)          (((const struct T_UINT32_READ *)(const void *)(add
 109:Drivers/CMSIS/Include/cmsis_gcc.h **** #endif
 110:Drivers/CMSIS/Include/cmsis_gcc.h **** #ifndef   __ALIGNED
 111:Drivers/CMSIS/Include/cmsis_gcc.h ****   #define __ALIGNED(x)                           __attribute__((aligned(x)))
 112:Drivers/CMSIS/Include/cmsis_gcc.h **** #endif
 113:Drivers/CMSIS/Include/cmsis_gcc.h **** #ifndef   __RESTRICT
 114:Drivers/CMSIS/Include/cmsis_gcc.h ****   #define __RESTRICT                             __restrict
 115:Drivers/CMSIS/Include/cmsis_gcc.h **** #endif
 116:Drivers/CMSIS/Include/cmsis_gcc.h **** #ifndef   __COMPILER_BARRIER
 117:Drivers/CMSIS/Include/cmsis_gcc.h ****   #define __COMPILER_BARRIER()                   __ASM volatile("":::"memory")
 118:Drivers/CMSIS/Include/cmsis_gcc.h **** #endif
 119:Drivers/CMSIS/Include/cmsis_gcc.h **** 
 120:Drivers/CMSIS/Include/cmsis_gcc.h **** /* #########################  Startup and Lowlevel Init  ######################## */
 121:Drivers/CMSIS/Include/cmsis_gcc.h **** 
 122:Drivers/CMSIS/Include/cmsis_gcc.h **** #ifndef __PROGRAM_START
 123:Drivers/CMSIS/Include/cmsis_gcc.h **** 
 124:Drivers/CMSIS/Include/cmsis_gcc.h **** /**
 125:Drivers/CMSIS/Include/cmsis_gcc.h ****   \brief   Initializes data and bss sections
 126:Drivers/CMSIS/Include/cmsis_gcc.h ****   \details This default implementations initialized all data and additional bss
 127:Drivers/CMSIS/Include/cmsis_gcc.h ****            sections relying on .copy.table and .zero.table specified properly
 128:Drivers/CMSIS/Include/cmsis_gcc.h ****            in the used linker script.
 129:Drivers/CMSIS/Include/cmsis_gcc.h ****   
 130:Drivers/CMSIS/Include/cmsis_gcc.h ****  */
 131:Drivers/CMSIS/Include/cmsis_gcc.h **** __STATIC_FORCEINLINE __NO_RETURN void __cmsis_start(void)
 132:Drivers/CMSIS/Include/cmsis_gcc.h **** {
 133:Drivers/CMSIS/Include/cmsis_gcc.h ****   extern void _start(void) __NO_RETURN;
 134:Drivers/CMSIS/Include/cmsis_gcc.h ****   
 135:Drivers/CMSIS/Include/cmsis_gcc.h ****   typedef struct {
 136:Drivers/CMSIS/Include/cmsis_gcc.h ****     uint32_t const* src;
 137:Drivers/CMSIS/Include/cmsis_gcc.h ****     uint32_t* dest;
 138:Drivers/CMSIS/Include/cmsis_gcc.h ****     uint32_t  wlen;
 139:Drivers/CMSIS/Include/cmsis_gcc.h ****   } __copy_table_t;
 140:Drivers/CMSIS/Include/cmsis_gcc.h ****   
 141:Drivers/CMSIS/Include/cmsis_gcc.h ****   typedef struct {
 142:Drivers/CMSIS/Include/cmsis_gcc.h ****     uint32_t* dest;
 143:Drivers/CMSIS/Include/cmsis_gcc.h ****     uint32_t  wlen;
 144:Drivers/CMSIS/Include/cmsis_gcc.h ****   } __zero_table_t;
 145:Drivers/CMSIS/Include/cmsis_gcc.h ****   
 146:Drivers/CMSIS/Include/cmsis_gcc.h ****   extern const __copy_table_t __copy_table_start__;
ARM GAS  C:\Users\kpetr\AppData\Local\Temp\cc6WsH7z.s 			page 18


 147:Drivers/CMSIS/Include/cmsis_gcc.h ****   extern const __copy_table_t __copy_table_end__;
 148:Drivers/CMSIS/Include/cmsis_gcc.h ****   extern const __zero_table_t __zero_table_start__;
 149:Drivers/CMSIS/Include/cmsis_gcc.h ****   extern const __zero_table_t __zero_table_end__;
 150:Drivers/CMSIS/Include/cmsis_gcc.h **** 
 151:Drivers/CMSIS/Include/cmsis_gcc.h ****   for (__copy_table_t const* pTable = &__copy_table_start__; pTable < &__copy_table_end__; ++pTable
 152:Drivers/CMSIS/Include/cmsis_gcc.h ****     for(uint32_t i=0u; i<pTable->wlen; ++i) {
 153:Drivers/CMSIS/Include/cmsis_gcc.h ****       pTable->dest[i] = pTable->src[i];
 154:Drivers/CMSIS/Include/cmsis_gcc.h ****     }
 155:Drivers/CMSIS/Include/cmsis_gcc.h ****   }
 156:Drivers/CMSIS/Include/cmsis_gcc.h ****  
 157:Drivers/CMSIS/Include/cmsis_gcc.h ****   for (__zero_table_t const* pTable = &__zero_table_start__; pTable < &__zero_table_end__; ++pTable
 158:Drivers/CMSIS/Include/cmsis_gcc.h ****     for(uint32_t i=0u; i<pTable->wlen; ++i) {
 159:Drivers/CMSIS/Include/cmsis_gcc.h ****       pTable->dest[i] = 0u;
 160:Drivers/CMSIS/Include/cmsis_gcc.h ****     }
 161:Drivers/CMSIS/Include/cmsis_gcc.h ****   }
 162:Drivers/CMSIS/Include/cmsis_gcc.h ****  
 163:Drivers/CMSIS/Include/cmsis_gcc.h ****   _start();
 164:Drivers/CMSIS/Include/cmsis_gcc.h **** }
 165:Drivers/CMSIS/Include/cmsis_gcc.h ****   
 166:Drivers/CMSIS/Include/cmsis_gcc.h **** #define __PROGRAM_START           __cmsis_start
 167:Drivers/CMSIS/Include/cmsis_gcc.h **** #endif
 168:Drivers/CMSIS/Include/cmsis_gcc.h **** 
 169:Drivers/CMSIS/Include/cmsis_gcc.h **** #ifndef __INITIAL_SP
 170:Drivers/CMSIS/Include/cmsis_gcc.h **** #define __INITIAL_SP              __StackTop
 171:Drivers/CMSIS/Include/cmsis_gcc.h **** #endif
 172:Drivers/CMSIS/Include/cmsis_gcc.h **** 
 173:Drivers/CMSIS/Include/cmsis_gcc.h **** #ifndef __STACK_LIMIT
 174:Drivers/CMSIS/Include/cmsis_gcc.h **** #define __STACK_LIMIT             __StackLimit
 175:Drivers/CMSIS/Include/cmsis_gcc.h **** #endif
 176:Drivers/CMSIS/Include/cmsis_gcc.h **** 
 177:Drivers/CMSIS/Include/cmsis_gcc.h **** #ifndef __VECTOR_TABLE
 178:Drivers/CMSIS/Include/cmsis_gcc.h **** #define __VECTOR_TABLE            __Vectors
 179:Drivers/CMSIS/Include/cmsis_gcc.h **** #endif
 180:Drivers/CMSIS/Include/cmsis_gcc.h **** 
 181:Drivers/CMSIS/Include/cmsis_gcc.h **** #ifndef __VECTOR_TABLE_ATTRIBUTE
 182:Drivers/CMSIS/Include/cmsis_gcc.h **** #define __VECTOR_TABLE_ATTRIBUTE  __attribute((used, section(".vectors")))
 183:Drivers/CMSIS/Include/cmsis_gcc.h **** #endif
 184:Drivers/CMSIS/Include/cmsis_gcc.h **** 
 185:Drivers/CMSIS/Include/cmsis_gcc.h **** /* ###########################  Core Function Access  ########################### */
 186:Drivers/CMSIS/Include/cmsis_gcc.h **** /** \ingroup  CMSIS_Core_FunctionInterface
 187:Drivers/CMSIS/Include/cmsis_gcc.h ****     \defgroup CMSIS_Core_RegAccFunctions CMSIS Core Register Access Functions
 188:Drivers/CMSIS/Include/cmsis_gcc.h ****   @{
 189:Drivers/CMSIS/Include/cmsis_gcc.h ****  */
 190:Drivers/CMSIS/Include/cmsis_gcc.h **** 
 191:Drivers/CMSIS/Include/cmsis_gcc.h **** /**
 192:Drivers/CMSIS/Include/cmsis_gcc.h ****   \brief   Enable IRQ Interrupts
 193:Drivers/CMSIS/Include/cmsis_gcc.h ****   \details Enables IRQ interrupts by clearing the I-bit in the CPSR.
 194:Drivers/CMSIS/Include/cmsis_gcc.h ****            Can only be executed in Privileged modes.
 195:Drivers/CMSIS/Include/cmsis_gcc.h ****  */
 196:Drivers/CMSIS/Include/cmsis_gcc.h **** __STATIC_FORCEINLINE void __enable_irq(void)
 197:Drivers/CMSIS/Include/cmsis_gcc.h **** {
 198:Drivers/CMSIS/Include/cmsis_gcc.h ****   __ASM volatile ("cpsie i" : : : "memory");
 199:Drivers/CMSIS/Include/cmsis_gcc.h **** }
 200:Drivers/CMSIS/Include/cmsis_gcc.h **** 
 201:Drivers/CMSIS/Include/cmsis_gcc.h **** 
 202:Drivers/CMSIS/Include/cmsis_gcc.h **** /**
 203:Drivers/CMSIS/Include/cmsis_gcc.h ****   \brief   Disable IRQ Interrupts
ARM GAS  C:\Users\kpetr\AppData\Local\Temp\cc6WsH7z.s 			page 19


 204:Drivers/CMSIS/Include/cmsis_gcc.h ****   \details Disables IRQ interrupts by setting the I-bit in the CPSR.
 205:Drivers/CMSIS/Include/cmsis_gcc.h ****            Can only be executed in Privileged modes.
 206:Drivers/CMSIS/Include/cmsis_gcc.h ****  */
 207:Drivers/CMSIS/Include/cmsis_gcc.h **** __STATIC_FORCEINLINE void __disable_irq(void)
 331              		.loc 2 207 27 view .LVU82
 332              	.LBB9:
 208:Drivers/CMSIS/Include/cmsis_gcc.h **** {
 209:Drivers/CMSIS/Include/cmsis_gcc.h ****   __ASM volatile ("cpsid i" : : : "memory");
 333              		.loc 2 209 3 view .LVU83
 334              		.syntax unified
 335              	@ 209 "Drivers/CMSIS/Include/cmsis_gcc.h" 1
 336 0000 72B6     		cpsid i
 337              	@ 0 "" 2
 338              		.thumb
 339              		.syntax unified
 340              	.L15:
 341              	.LBE9:
 342              	.LBE8:
 501:Core/Src/main.c ****   while (1)
 343              		.loc 1 501 3 view .LVU84
 502:Core/Src/main.c ****   {
 503:Core/Src/main.c ****   }
 344              		.loc 1 503 3 view .LVU85
 501:Core/Src/main.c ****   while (1)
 345              		.loc 1 501 9 view .LVU86
 346 0002 FEE7     		b	.L15
 347              		.cfi_endproc
 348              	.LFE145:
 350              		.section	.text.MX_I2C1_Init,"ax",%progbits
 351              		.align	1
 352              		.syntax unified
 353              		.thumb
 354              		.thumb_func
 356              	MX_I2C1_Init:
 357              	.LFB137:
 221:Core/Src/main.c **** 
 358              		.loc 1 221 1 view -0
 359              		.cfi_startproc
 360              		@ args = 0, pretend = 0, frame = 0
 361              		@ frame_needed = 0, uses_anonymous_args = 0
 362 0000 08B5     		push	{r3, lr}
 363              		.cfi_def_cfa_offset 8
 364              		.cfi_offset 3, -8
 365              		.cfi_offset 14, -4
 230:Core/Src/main.c ****   hi2c1.Init.Timing = 0x00707CBB;
 366              		.loc 1 230 3 view .LVU88
 230:Core/Src/main.c ****   hi2c1.Init.Timing = 0x00707CBB;
 367              		.loc 1 230 18 is_stmt 0 view .LVU89
 368 0002 1148     		ldr	r0, .L24
 369 0004 114B     		ldr	r3, .L24+4
 370 0006 0360     		str	r3, [r0]
 231:Core/Src/main.c ****   hi2c1.Init.OwnAddress1 = 0;
 371              		.loc 1 231 3 is_stmt 1 view .LVU90
 231:Core/Src/main.c ****   hi2c1.Init.OwnAddress1 = 0;
 372              		.loc 1 231 21 is_stmt 0 view .LVU91
 373 0008 114B     		ldr	r3, .L24+8
 374 000a 4360     		str	r3, [r0, #4]
ARM GAS  C:\Users\kpetr\AppData\Local\Temp\cc6WsH7z.s 			page 20


 232:Core/Src/main.c ****   hi2c1.Init.AddressingMode = I2C_ADDRESSINGMODE_7BIT;
 375              		.loc 1 232 3 is_stmt 1 view .LVU92
 232:Core/Src/main.c ****   hi2c1.Init.AddressingMode = I2C_ADDRESSINGMODE_7BIT;
 376              		.loc 1 232 26 is_stmt 0 view .LVU93
 377 000c 0023     		movs	r3, #0
 378 000e 8360     		str	r3, [r0, #8]
 233:Core/Src/main.c ****   hi2c1.Init.DualAddressMode = I2C_DUALADDRESS_DISABLE;
 379              		.loc 1 233 3 is_stmt 1 view .LVU94
 233:Core/Src/main.c ****   hi2c1.Init.DualAddressMode = I2C_DUALADDRESS_DISABLE;
 380              		.loc 1 233 29 is_stmt 0 view .LVU95
 381 0010 0122     		movs	r2, #1
 382 0012 C260     		str	r2, [r0, #12]
 234:Core/Src/main.c ****   hi2c1.Init.OwnAddress2 = 0;
 383              		.loc 1 234 3 is_stmt 1 view .LVU96
 234:Core/Src/main.c ****   hi2c1.Init.OwnAddress2 = 0;
 384              		.loc 1 234 30 is_stmt 0 view .LVU97
 385 0014 0361     		str	r3, [r0, #16]
 235:Core/Src/main.c ****   hi2c1.Init.OwnAddress2Masks = I2C_OA2_NOMASK;
 386              		.loc 1 235 3 is_stmt 1 view .LVU98
 235:Core/Src/main.c ****   hi2c1.Init.OwnAddress2Masks = I2C_OA2_NOMASK;
 387              		.loc 1 235 26 is_stmt 0 view .LVU99
 388 0016 4361     		str	r3, [r0, #20]
 236:Core/Src/main.c ****   hi2c1.Init.GeneralCallMode = I2C_GENERALCALL_DISABLE;
 389              		.loc 1 236 3 is_stmt 1 view .LVU100
 236:Core/Src/main.c ****   hi2c1.Init.GeneralCallMode = I2C_GENERALCALL_DISABLE;
 390              		.loc 1 236 31 is_stmt 0 view .LVU101
 391 0018 8361     		str	r3, [r0, #24]
 237:Core/Src/main.c ****   hi2c1.Init.NoStretchMode = I2C_NOSTRETCH_DISABLE;
 392              		.loc 1 237 3 is_stmt 1 view .LVU102
 237:Core/Src/main.c ****   hi2c1.Init.NoStretchMode = I2C_NOSTRETCH_DISABLE;
 393              		.loc 1 237 30 is_stmt 0 view .LVU103
 394 001a C361     		str	r3, [r0, #28]
 238:Core/Src/main.c ****   if (HAL_I2C_Init(&hi2c1) != HAL_OK)
 395              		.loc 1 238 3 is_stmt 1 view .LVU104
 238:Core/Src/main.c ****   if (HAL_I2C_Init(&hi2c1) != HAL_OK)
 396              		.loc 1 238 28 is_stmt 0 view .LVU105
 397 001c 0362     		str	r3, [r0, #32]
 239:Core/Src/main.c ****   {
 398              		.loc 1 239 3 is_stmt 1 view .LVU106
 239:Core/Src/main.c ****   {
 399              		.loc 1 239 7 is_stmt 0 view .LVU107
 400 001e FFF7FEFF 		bl	HAL_I2C_Init
 401              	.LVL18:
 239:Core/Src/main.c ****   {
 402              		.loc 1 239 6 discriminator 1 view .LVU108
 403 0022 50B9     		cbnz	r0, .L21
 246:Core/Src/main.c ****   {
 404              		.loc 1 246 3 is_stmt 1 view .LVU109
 246:Core/Src/main.c ****   {
 405              		.loc 1 246 7 is_stmt 0 view .LVU110
 406 0024 0021     		movs	r1, #0
 407 0026 0848     		ldr	r0, .L24
 408 0028 FFF7FEFF 		bl	HAL_I2CEx_ConfigAnalogFilter
 409              	.LVL19:
 246:Core/Src/main.c ****   {
 410              		.loc 1 246 6 discriminator 1 view .LVU111
 411 002c 38B9     		cbnz	r0, .L22
ARM GAS  C:\Users\kpetr\AppData\Local\Temp\cc6WsH7z.s 			page 21


 253:Core/Src/main.c ****   {
 412              		.loc 1 253 3 is_stmt 1 view .LVU112
 253:Core/Src/main.c ****   {
 413              		.loc 1 253 7 is_stmt 0 view .LVU113
 414 002e 0021     		movs	r1, #0
 415 0030 0548     		ldr	r0, .L24
 416 0032 FFF7FEFF 		bl	HAL_I2CEx_ConfigDigitalFilter
 417              	.LVL20:
 253:Core/Src/main.c ****   {
 418              		.loc 1 253 6 discriminator 1 view .LVU114
 419 0036 20B9     		cbnz	r0, .L23
 261:Core/Src/main.c **** 
 420              		.loc 1 261 1 view .LVU115
 421 0038 08BD     		pop	{r3, pc}
 422              	.L21:
 241:Core/Src/main.c ****   }
 423              		.loc 1 241 5 is_stmt 1 view .LVU116
 424 003a FFF7FEFF 		bl	Error_Handler
 425              	.LVL21:
 426              	.L22:
 248:Core/Src/main.c ****   }
 427              		.loc 1 248 5 view .LVU117
 428 003e FFF7FEFF 		bl	Error_Handler
 429              	.LVL22:
 430              	.L23:
 255:Core/Src/main.c ****   }
 431              		.loc 1 255 5 view .LVU118
 432 0042 FFF7FEFF 		bl	Error_Handler
 433              	.LVL23:
 434              	.L25:
 435 0046 00BF     		.align	2
 436              	.L24:
 437 0048 00000000 		.word	hi2c1
 438 004c 00540040 		.word	1073763328
 439 0050 BB7C7000 		.word	7371963
 440              		.cfi_endproc
 441              	.LFE137:
 443              		.section	.text.MX_TIM6_Init,"ax",%progbits
 444              		.align	1
 445              		.syntax unified
 446              		.thumb
 447              		.thumb_func
 449              	MX_TIM6_Init:
 450              	.LFB139:
 318:Core/Src/main.c **** 
 451              		.loc 1 318 1 view -0
 452              		.cfi_startproc
 453              		@ args = 0, pretend = 0, frame = 16
 454              		@ frame_needed = 0, uses_anonymous_args = 0
 455 0000 00B5     		push	{lr}
 456              		.cfi_def_cfa_offset 4
 457              		.cfi_offset 14, -4
 458 0002 85B0     		sub	sp, sp, #20
 459              		.cfi_def_cfa_offset 24
 324:Core/Src/main.c **** 
 460              		.loc 1 324 3 view .LVU120
 324:Core/Src/main.c **** 
ARM GAS  C:\Users\kpetr\AppData\Local\Temp\cc6WsH7z.s 			page 22


 461              		.loc 1 324 27 is_stmt 0 view .LVU121
 462 0004 0023     		movs	r3, #0
 463 0006 0193     		str	r3, [sp, #4]
 464 0008 0293     		str	r3, [sp, #8]
 465 000a 0393     		str	r3, [sp, #12]
 329:Core/Src/main.c ****   htim6.Init.Prescaler = 40000;
 466              		.loc 1 329 3 is_stmt 1 view .LVU122
 329:Core/Src/main.c ****   htim6.Init.Prescaler = 40000;
 467              		.loc 1 329 18 is_stmt 0 view .LVU123
 468 000c 0E48     		ldr	r0, .L32
 469 000e 0F4A     		ldr	r2, .L32+4
 470 0010 0260     		str	r2, [r0]
 330:Core/Src/main.c ****   htim6.Init.CounterMode = TIM_COUNTERMODE_UP;
 471              		.loc 1 330 3 is_stmt 1 view .LVU124
 330:Core/Src/main.c ****   htim6.Init.CounterMode = TIM_COUNTERMODE_UP;
 472              		.loc 1 330 24 is_stmt 0 view .LVU125
 473 0012 49F64042 		movw	r2, #40000
 474 0016 4260     		str	r2, [r0, #4]
 331:Core/Src/main.c ****   htim6.Init.Period = 200;
 475              		.loc 1 331 3 is_stmt 1 view .LVU126
 331:Core/Src/main.c ****   htim6.Init.Period = 200;
 476              		.loc 1 331 26 is_stmt 0 view .LVU127
 477 0018 8360     		str	r3, [r0, #8]
 332:Core/Src/main.c ****   htim6.Init.AutoReloadPreload = TIM_AUTORELOAD_PRELOAD_ENABLE;
 478              		.loc 1 332 3 is_stmt 1 view .LVU128
 332:Core/Src/main.c ****   htim6.Init.AutoReloadPreload = TIM_AUTORELOAD_PRELOAD_ENABLE;
 479              		.loc 1 332 21 is_stmt 0 view .LVU129
 480 001a C823     		movs	r3, #200
 481 001c C360     		str	r3, [r0, #12]
 333:Core/Src/main.c ****   if (HAL_TIM_Base_Init(&htim6) != HAL_OK)
 482              		.loc 1 333 3 is_stmt 1 view .LVU130
 333:Core/Src/main.c ****   if (HAL_TIM_Base_Init(&htim6) != HAL_OK)
 483              		.loc 1 333 32 is_stmt 0 view .LVU131
 484 001e 8023     		movs	r3, #128
 485 0020 8361     		str	r3, [r0, #24]
 334:Core/Src/main.c ****   {
 486              		.loc 1 334 3 is_stmt 1 view .LVU132
 334:Core/Src/main.c ****   {
 487              		.loc 1 334 7 is_stmt 0 view .LVU133
 488 0022 FFF7FEFF 		bl	HAL_TIM_Base_Init
 489              	.LVL24:
 334:Core/Src/main.c ****   {
 490              		.loc 1 334 6 discriminator 1 view .LVU134
 491 0026 50B9     		cbnz	r0, .L30
 338:Core/Src/main.c ****   sMasterConfig.MasterSlaveMode = TIM_MASTERSLAVEMODE_DISABLE;
 492              		.loc 1 338 3 is_stmt 1 view .LVU135
 338:Core/Src/main.c ****   sMasterConfig.MasterSlaveMode = TIM_MASTERSLAVEMODE_DISABLE;
 493              		.loc 1 338 37 is_stmt 0 view .LVU136
 494 0028 0023     		movs	r3, #0
 495 002a 0193     		str	r3, [sp, #4]
 339:Core/Src/main.c ****   if (HAL_TIMEx_MasterConfigSynchronization(&htim6, &sMasterConfig) != HAL_OK)
 496              		.loc 1 339 3 is_stmt 1 view .LVU137
 339:Core/Src/main.c ****   if (HAL_TIMEx_MasterConfigSynchronization(&htim6, &sMasterConfig) != HAL_OK)
 497              		.loc 1 339 33 is_stmt 0 view .LVU138
 498 002c 0393     		str	r3, [sp, #12]
 340:Core/Src/main.c ****   {
 499              		.loc 1 340 3 is_stmt 1 view .LVU139
ARM GAS  C:\Users\kpetr\AppData\Local\Temp\cc6WsH7z.s 			page 23


 340:Core/Src/main.c ****   {
 500              		.loc 1 340 7 is_stmt 0 view .LVU140
 501 002e 01A9     		add	r1, sp, #4
 502 0030 0548     		ldr	r0, .L32
 503 0032 FFF7FEFF 		bl	HAL_TIMEx_MasterConfigSynchronization
 504              	.LVL25:
 340:Core/Src/main.c ****   {
 505              		.loc 1 340 6 discriminator 1 view .LVU141
 506 0036 20B9     		cbnz	r0, .L31
 348:Core/Src/main.c **** 
 507              		.loc 1 348 1 view .LVU142
 508 0038 05B0     		add	sp, sp, #20
 509              		.cfi_remember_state
 510              		.cfi_def_cfa_offset 4
 511              		@ sp needed
 512 003a 5DF804FB 		ldr	pc, [sp], #4
 513              	.L30:
 514              		.cfi_restore_state
 336:Core/Src/main.c ****   }
 515              		.loc 1 336 5 is_stmt 1 view .LVU143
 516 003e FFF7FEFF 		bl	Error_Handler
 517              	.LVL26:
 518              	.L31:
 342:Core/Src/main.c ****   }
 519              		.loc 1 342 5 view .LVU144
 520 0042 FFF7FEFF 		bl	Error_Handler
 521              	.LVL27:
 522              	.L33:
 523 0046 00BF     		.align	2
 524              	.L32:
 525 0048 00000000 		.word	htim6
 526 004c 00100040 		.word	1073745920
 527              		.cfi_endproc
 528              	.LFE139:
 530              		.section	.text.MX_USART2_UART_Init,"ax",%progbits
 531              		.align	1
 532              		.syntax unified
 533              		.thumb
 534              		.thumb_func
 536              	MX_USART2_UART_Init:
 537              	.LFB141:
 394:Core/Src/main.c **** 
 538              		.loc 1 394 1 view -0
 539              		.cfi_startproc
 540              		@ args = 0, pretend = 0, frame = 0
 541              		@ frame_needed = 0, uses_anonymous_args = 0
 542 0000 08B5     		push	{r3, lr}
 543              		.cfi_def_cfa_offset 8
 544              		.cfi_offset 3, -8
 545              		.cfi_offset 14, -4
 403:Core/Src/main.c ****   huart2.Init.BaudRate = 115200;
 546              		.loc 1 403 3 view .LVU146
 403:Core/Src/main.c ****   huart2.Init.BaudRate = 115200;
 547              		.loc 1 403 19 is_stmt 0 view .LVU147
 548 0002 0B48     		ldr	r0, .L38
 549 0004 0B4B     		ldr	r3, .L38+4
 550 0006 0360     		str	r3, [r0]
ARM GAS  C:\Users\kpetr\AppData\Local\Temp\cc6WsH7z.s 			page 24


 404:Core/Src/main.c ****   huart2.Init.WordLength = UART_WORDLENGTH_8B;
 551              		.loc 1 404 3 is_stmt 1 view .LVU148
 404:Core/Src/main.c ****   huart2.Init.WordLength = UART_WORDLENGTH_8B;
 552              		.loc 1 404 24 is_stmt 0 view .LVU149
 553 0008 4FF4E133 		mov	r3, #115200
 554 000c 4360     		str	r3, [r0, #4]
 405:Core/Src/main.c ****   huart2.Init.StopBits = UART_STOPBITS_1;
 555              		.loc 1 405 3 is_stmt 1 view .LVU150
 405:Core/Src/main.c ****   huart2.Init.StopBits = UART_STOPBITS_1;
 556              		.loc 1 405 26 is_stmt 0 view .LVU151
 557 000e 0023     		movs	r3, #0
 558 0010 8360     		str	r3, [r0, #8]
 406:Core/Src/main.c ****   huart2.Init.Parity = UART_PARITY_NONE;
 559              		.loc 1 406 3 is_stmt 1 view .LVU152
 406:Core/Src/main.c ****   huart2.Init.Parity = UART_PARITY_NONE;
 560              		.loc 1 406 24 is_stmt 0 view .LVU153
 561 0012 C360     		str	r3, [r0, #12]
 407:Core/Src/main.c ****   huart2.Init.Mode = UART_MODE_TX_RX;
 562              		.loc 1 407 3 is_stmt 1 view .LVU154
 407:Core/Src/main.c ****   huart2.Init.Mode = UART_MODE_TX_RX;
 563              		.loc 1 407 22 is_stmt 0 view .LVU155
 564 0014 0361     		str	r3, [r0, #16]
 408:Core/Src/main.c ****   huart2.Init.HwFlowCtl = UART_HWCONTROL_NONE;
 565              		.loc 1 408 3 is_stmt 1 view .LVU156
 408:Core/Src/main.c ****   huart2.Init.HwFlowCtl = UART_HWCONTROL_NONE;
 566              		.loc 1 408 20 is_stmt 0 view .LVU157
 567 0016 0C22     		movs	r2, #12
 568 0018 4261     		str	r2, [r0, #20]
 409:Core/Src/main.c ****   huart2.Init.OverSampling = UART_OVERSAMPLING_16;
 569              		.loc 1 409 3 is_stmt 1 view .LVU158
 409:Core/Src/main.c ****   huart2.Init.OverSampling = UART_OVERSAMPLING_16;
 570              		.loc 1 409 25 is_stmt 0 view .LVU159
 571 001a 8361     		str	r3, [r0, #24]
 410:Core/Src/main.c ****   huart2.Init.OneBitSampling = UART_ONE_BIT_SAMPLE_DISABLE;
 572              		.loc 1 410 3 is_stmt 1 view .LVU160
 410:Core/Src/main.c ****   huart2.Init.OneBitSampling = UART_ONE_BIT_SAMPLE_DISABLE;
 573              		.loc 1 410 28 is_stmt 0 view .LVU161
 574 001c C361     		str	r3, [r0, #28]
 411:Core/Src/main.c ****   huart2.AdvancedInit.AdvFeatureInit = UART_ADVFEATURE_NO_INIT;
 575              		.loc 1 411 3 is_stmt 1 view .LVU162
 411:Core/Src/main.c ****   huart2.AdvancedInit.AdvFeatureInit = UART_ADVFEATURE_NO_INIT;
 576              		.loc 1 411 30 is_stmt 0 view .LVU163
 577 001e 0362     		str	r3, [r0, #32]
 412:Core/Src/main.c ****   if (HAL_UART_Init(&huart2) != HAL_OK)
 578              		.loc 1 412 3 is_stmt 1 view .LVU164
 412:Core/Src/main.c ****   if (HAL_UART_Init(&huart2) != HAL_OK)
 579              		.loc 1 412 38 is_stmt 0 view .LVU165
 580 0020 4362     		str	r3, [r0, #36]
 413:Core/Src/main.c ****   {
 581              		.loc 1 413 3 is_stmt 1 view .LVU166
 413:Core/Src/main.c ****   {
 582              		.loc 1 413 7 is_stmt 0 view .LVU167
 583 0022 FFF7FEFF 		bl	HAL_UART_Init
 584              	.LVL28:
 413:Core/Src/main.c ****   {
 585              		.loc 1 413 6 discriminator 1 view .LVU168
 586 0026 00B9     		cbnz	r0, .L37
ARM GAS  C:\Users\kpetr\AppData\Local\Temp\cc6WsH7z.s 			page 25


 421:Core/Src/main.c **** 
 587              		.loc 1 421 1 view .LVU169
 588 0028 08BD     		pop	{r3, pc}
 589              	.L37:
 415:Core/Src/main.c ****   }
 590              		.loc 1 415 5 is_stmt 1 view .LVU170
 591 002a FFF7FEFF 		bl	Error_Handler
 592              	.LVL29:
 593              	.L39:
 594 002e 00BF     		.align	2
 595              	.L38:
 596 0030 00000000 		.word	huart2
 597 0034 00440040 		.word	1073759232
 598              		.cfi_endproc
 599              	.LFE141:
 601              		.section	.text.MX_TIM2_Init,"ax",%progbits
 602              		.align	1
 603              		.syntax unified
 604              		.thumb
 605              		.thumb_func
 607              	MX_TIM2_Init:
 608              	.LFB138:
 269:Core/Src/main.c **** 
 609              		.loc 1 269 1 view -0
 610              		.cfi_startproc
 611              		@ args = 0, pretend = 0, frame = 48
 612              		@ frame_needed = 0, uses_anonymous_args = 0
 613 0000 00B5     		push	{lr}
 614              		.cfi_def_cfa_offset 4
 615              		.cfi_offset 14, -4
 616 0002 8DB0     		sub	sp, sp, #52
 617              		.cfi_def_cfa_offset 56
 275:Core/Src/main.c ****   TIM_MasterConfigTypeDef sMasterConfig = {0};
 618              		.loc 1 275 3 view .LVU172
 275:Core/Src/main.c ****   TIM_MasterConfigTypeDef sMasterConfig = {0};
 619              		.loc 1 275 27 is_stmt 0 view .LVU173
 620 0004 2422     		movs	r2, #36
 621 0006 0021     		movs	r1, #0
 622 0008 03A8     		add	r0, sp, #12
 623 000a FFF7FEFF 		bl	memset
 624              	.LVL30:
 276:Core/Src/main.c **** 
 625              		.loc 1 276 3 is_stmt 1 view .LVU174
 276:Core/Src/main.c **** 
 626              		.loc 1 276 27 is_stmt 0 view .LVU175
 627 000e 0023     		movs	r3, #0
 628 0010 0093     		str	r3, [sp]
 629 0012 0193     		str	r3, [sp, #4]
 630 0014 0293     		str	r3, [sp, #8]
 281:Core/Src/main.c ****   htim2.Init.Prescaler = 0;
 631              		.loc 1 281 3 is_stmt 1 view .LVU176
 281:Core/Src/main.c ****   htim2.Init.Prescaler = 0;
 632              		.loc 1 281 18 is_stmt 0 view .LVU177
 633 0016 1148     		ldr	r0, .L46
 634 0018 4FF08042 		mov	r2, #1073741824
 635 001c 0260     		str	r2, [r0]
 282:Core/Src/main.c ****   htim2.Init.CounterMode = TIM_COUNTERMODE_UP;
ARM GAS  C:\Users\kpetr\AppData\Local\Temp\cc6WsH7z.s 			page 26


 636              		.loc 1 282 3 is_stmt 1 view .LVU178
 282:Core/Src/main.c ****   htim2.Init.CounterMode = TIM_COUNTERMODE_UP;
 637              		.loc 1 282 24 is_stmt 0 view .LVU179
 638 001e 4360     		str	r3, [r0, #4]
 283:Core/Src/main.c ****   htim2.Init.Period = 4294967295;
 639              		.loc 1 283 3 is_stmt 1 view .LVU180
 283:Core/Src/main.c ****   htim2.Init.Period = 4294967295;
 640              		.loc 1 283 26 is_stmt 0 view .LVU181
 641 0020 8360     		str	r3, [r0, #8]
 284:Core/Src/main.c ****   htim2.Init.ClockDivision = TIM_CLOCKDIVISION_DIV1;
 642              		.loc 1 284 3 is_stmt 1 view .LVU182
 284:Core/Src/main.c ****   htim2.Init.ClockDivision = TIM_CLOCKDIVISION_DIV1;
 643              		.loc 1 284 21 is_stmt 0 view .LVU183
 644 0022 4FF0FF32 		mov	r2, #-1
 645 0026 C260     		str	r2, [r0, #12]
 285:Core/Src/main.c ****   htim2.Init.AutoReloadPreload = TIM_AUTORELOAD_PRELOAD_DISABLE;
 646              		.loc 1 285 3 is_stmt 1 view .LVU184
 285:Core/Src/main.c ****   htim2.Init.AutoReloadPreload = TIM_AUTORELOAD_PRELOAD_DISABLE;
 647              		.loc 1 285 28 is_stmt 0 view .LVU185
 648 0028 0361     		str	r3, [r0, #16]
 286:Core/Src/main.c ****   sConfig.EncoderMode = TIM_ENCODERMODE_TI1;
 649              		.loc 1 286 3 is_stmt 1 view .LVU186
 286:Core/Src/main.c ****   sConfig.EncoderMode = TIM_ENCODERMODE_TI1;
 650              		.loc 1 286 32 is_stmt 0 view .LVU187
 651 002a 8361     		str	r3, [r0, #24]
 287:Core/Src/main.c ****   sConfig.IC1Polarity = TIM_ICPOLARITY_RISING;
 652              		.loc 1 287 3 is_stmt 1 view .LVU188
 287:Core/Src/main.c ****   sConfig.IC1Polarity = TIM_ICPOLARITY_RISING;
 653              		.loc 1 287 23 is_stmt 0 view .LVU189
 654 002c 0123     		movs	r3, #1
 655 002e 0393     		str	r3, [sp, #12]
 288:Core/Src/main.c ****   sConfig.IC1Selection = TIM_ICSELECTION_DIRECTTI;
 656              		.loc 1 288 3 is_stmt 1 view .LVU190
 289:Core/Src/main.c ****   sConfig.IC1Prescaler = TIM_ICPSC_DIV1;
 657              		.loc 1 289 3 view .LVU191
 289:Core/Src/main.c ****   sConfig.IC1Prescaler = TIM_ICPSC_DIV1;
 658              		.loc 1 289 24 is_stmt 0 view .LVU192
 659 0030 0593     		str	r3, [sp, #20]
 290:Core/Src/main.c ****   sConfig.IC1Filter = 0;
 660              		.loc 1 290 3 is_stmt 1 view .LVU193
 291:Core/Src/main.c ****   sConfig.IC2Polarity = TIM_ICPOLARITY_RISING;
 661              		.loc 1 291 3 view .LVU194
 292:Core/Src/main.c ****   sConfig.IC2Selection = TIM_ICSELECTION_DIRECTTI;
 662              		.loc 1 292 3 view .LVU195
 293:Core/Src/main.c ****   sConfig.IC2Prescaler = TIM_ICPSC_DIV1;
 663              		.loc 1 293 3 view .LVU196
 293:Core/Src/main.c ****   sConfig.IC2Prescaler = TIM_ICPSC_DIV1;
 664              		.loc 1 293 24 is_stmt 0 view .LVU197
 665 0032 0993     		str	r3, [sp, #36]
 294:Core/Src/main.c ****   sConfig.IC2Filter = 0;
 666              		.loc 1 294 3 is_stmt 1 view .LVU198
 295:Core/Src/main.c ****   if (HAL_TIM_Encoder_Init(&htim2, &sConfig) != HAL_OK)
 667              		.loc 1 295 3 view .LVU199
 296:Core/Src/main.c ****   {
 668              		.loc 1 296 3 view .LVU200
 296:Core/Src/main.c ****   {
 669              		.loc 1 296 7 is_stmt 0 view .LVU201
ARM GAS  C:\Users\kpetr\AppData\Local\Temp\cc6WsH7z.s 			page 27


 670 0034 03A9     		add	r1, sp, #12
 671 0036 FFF7FEFF 		bl	HAL_TIM_Encoder_Init
 672              	.LVL31:
 296:Core/Src/main.c ****   {
 673              		.loc 1 296 6 discriminator 1 view .LVU202
 674 003a 50B9     		cbnz	r0, .L44
 300:Core/Src/main.c ****   sMasterConfig.MasterSlaveMode = TIM_MASTERSLAVEMODE_DISABLE;
 675              		.loc 1 300 3 is_stmt 1 view .LVU203
 300:Core/Src/main.c ****   sMasterConfig.MasterSlaveMode = TIM_MASTERSLAVEMODE_DISABLE;
 676              		.loc 1 300 37 is_stmt 0 view .LVU204
 677 003c 0023     		movs	r3, #0
 678 003e 0093     		str	r3, [sp]
 301:Core/Src/main.c ****   if (HAL_TIMEx_MasterConfigSynchronization(&htim2, &sMasterConfig) != HAL_OK)
 679              		.loc 1 301 3 is_stmt 1 view .LVU205
 301:Core/Src/main.c ****   if (HAL_TIMEx_MasterConfigSynchronization(&htim2, &sMasterConfig) != HAL_OK)
 680              		.loc 1 301 33 is_stmt 0 view .LVU206
 681 0040 0293     		str	r3, [sp, #8]
 302:Core/Src/main.c ****   {
 682              		.loc 1 302 3 is_stmt 1 view .LVU207
 302:Core/Src/main.c ****   {
 683              		.loc 1 302 7 is_stmt 0 view .LVU208
 684 0042 6946     		mov	r1, sp
 685 0044 0548     		ldr	r0, .L46
 686 0046 FFF7FEFF 		bl	HAL_TIMEx_MasterConfigSynchronization
 687              	.LVL32:
 302:Core/Src/main.c ****   {
 688              		.loc 1 302 6 discriminator 1 view .LVU209
 689 004a 20B9     		cbnz	r0, .L45
 310:Core/Src/main.c **** 
 690              		.loc 1 310 1 view .LVU210
 691 004c 0DB0     		add	sp, sp, #52
 692              		.cfi_remember_state
 693              		.cfi_def_cfa_offset 4
 694              		@ sp needed
 695 004e 5DF804FB 		ldr	pc, [sp], #4
 696              	.L44:
 697              		.cfi_restore_state
 298:Core/Src/main.c ****   }
 698              		.loc 1 298 5 is_stmt 1 view .LVU211
 699 0052 FFF7FEFF 		bl	Error_Handler
 700              	.LVL33:
 701              	.L45:
 304:Core/Src/main.c ****   }
 702              		.loc 1 304 5 view .LVU212
 703 0056 FFF7FEFF 		bl	Error_Handler
 704              	.LVL34:
 705              	.L47:
 706 005a 00BF     		.align	2
 707              	.L46:
 708 005c 00000000 		.word	htim2
 709              		.cfi_endproc
 710              	.LFE138:
 712              		.section	.text.MX_TIM7_Init,"ax",%progbits
 713              		.align	1
 714              		.syntax unified
 715              		.thumb
 716              		.thumb_func
ARM GAS  C:\Users\kpetr\AppData\Local\Temp\cc6WsH7z.s 			page 28


 718              	MX_TIM7_Init:
 719              	.LFB140:
 356:Core/Src/main.c **** 
 720              		.loc 1 356 1 view -0
 721              		.cfi_startproc
 722              		@ args = 0, pretend = 0, frame = 16
 723              		@ frame_needed = 0, uses_anonymous_args = 0
 724 0000 00B5     		push	{lr}
 725              		.cfi_def_cfa_offset 4
 726              		.cfi_offset 14, -4
 727 0002 85B0     		sub	sp, sp, #20
 728              		.cfi_def_cfa_offset 24
 362:Core/Src/main.c **** 
 729              		.loc 1 362 3 view .LVU214
 362:Core/Src/main.c **** 
 730              		.loc 1 362 27 is_stmt 0 view .LVU215
 731 0004 0023     		movs	r3, #0
 732 0006 0193     		str	r3, [sp, #4]
 733 0008 0293     		str	r3, [sp, #8]
 734 000a 0393     		str	r3, [sp, #12]
 367:Core/Src/main.c ****   htim7.Init.Prescaler = 40000;
 735              		.loc 1 367 3 is_stmt 1 view .LVU216
 367:Core/Src/main.c ****   htim7.Init.Prescaler = 40000;
 736              		.loc 1 367 18 is_stmt 0 view .LVU217
 737 000c 0E48     		ldr	r0, .L54
 738 000e 0F4A     		ldr	r2, .L54+4
 739 0010 0260     		str	r2, [r0]
 368:Core/Src/main.c ****   htim7.Init.CounterMode = TIM_COUNTERMODE_UP;
 740              		.loc 1 368 3 is_stmt 1 view .LVU218
 368:Core/Src/main.c ****   htim7.Init.CounterMode = TIM_COUNTERMODE_UP;
 741              		.loc 1 368 24 is_stmt 0 view .LVU219
 742 0012 49F64042 		movw	r2, #40000
 743 0016 4260     		str	r2, [r0, #4]
 369:Core/Src/main.c ****   htim7.Init.Period = 80;
 744              		.loc 1 369 3 is_stmt 1 view .LVU220
 369:Core/Src/main.c ****   htim7.Init.Period = 80;
 745              		.loc 1 369 26 is_stmt 0 view .LVU221
 746 0018 8360     		str	r3, [r0, #8]
 370:Core/Src/main.c ****   htim7.Init.AutoReloadPreload = TIM_AUTORELOAD_PRELOAD_ENABLE;
 747              		.loc 1 370 3 is_stmt 1 view .LVU222
 370:Core/Src/main.c ****   htim7.Init.AutoReloadPreload = TIM_AUTORELOAD_PRELOAD_ENABLE;
 748              		.loc 1 370 21 is_stmt 0 view .LVU223
 749 001a 5023     		movs	r3, #80
 750 001c C360     		str	r3, [r0, #12]
 371:Core/Src/main.c ****   if (HAL_TIM_Base_Init(&htim7) != HAL_OK)
 751              		.loc 1 371 3 is_stmt 1 view .LVU224
 371:Core/Src/main.c ****   if (HAL_TIM_Base_Init(&htim7) != HAL_OK)
 752              		.loc 1 371 32 is_stmt 0 view .LVU225
 753 001e 8023     		movs	r3, #128
 754 0020 8361     		str	r3, [r0, #24]
 372:Core/Src/main.c ****   {
 755              		.loc 1 372 3 is_stmt 1 view .LVU226
 372:Core/Src/main.c ****   {
 756              		.loc 1 372 7 is_stmt 0 view .LVU227
 757 0022 FFF7FEFF 		bl	HAL_TIM_Base_Init
 758              	.LVL35:
 372:Core/Src/main.c ****   {
ARM GAS  C:\Users\kpetr\AppData\Local\Temp\cc6WsH7z.s 			page 29


 759              		.loc 1 372 6 discriminator 1 view .LVU228
 760 0026 50B9     		cbnz	r0, .L52
 376:Core/Src/main.c ****   sMasterConfig.MasterSlaveMode = TIM_MASTERSLAVEMODE_DISABLE;
 761              		.loc 1 376 3 is_stmt 1 view .LVU229
 376:Core/Src/main.c ****   sMasterConfig.MasterSlaveMode = TIM_MASTERSLAVEMODE_DISABLE;
 762              		.loc 1 376 37 is_stmt 0 view .LVU230
 763 0028 0023     		movs	r3, #0
 764 002a 0193     		str	r3, [sp, #4]
 377:Core/Src/main.c ****   if (HAL_TIMEx_MasterConfigSynchronization(&htim7, &sMasterConfig) != HAL_OK)
 765              		.loc 1 377 3 is_stmt 1 view .LVU231
 377:Core/Src/main.c ****   if (HAL_TIMEx_MasterConfigSynchronization(&htim7, &sMasterConfig) != HAL_OK)
 766              		.loc 1 377 33 is_stmt 0 view .LVU232
 767 002c 0393     		str	r3, [sp, #12]
 378:Core/Src/main.c ****   {
 768              		.loc 1 378 3 is_stmt 1 view .LVU233
 378:Core/Src/main.c ****   {
 769              		.loc 1 378 7 is_stmt 0 view .LVU234
 770 002e 01A9     		add	r1, sp, #4
 771 0030 0548     		ldr	r0, .L54
 772 0032 FFF7FEFF 		bl	HAL_TIMEx_MasterConfigSynchronization
 773              	.LVL36:
 378:Core/Src/main.c ****   {
 774              		.loc 1 378 6 discriminator 1 view .LVU235
 775 0036 20B9     		cbnz	r0, .L53
 386:Core/Src/main.c **** 
 776              		.loc 1 386 1 view .LVU236
 777 0038 05B0     		add	sp, sp, #20
 778              		.cfi_remember_state
 779              		.cfi_def_cfa_offset 4
 780              		@ sp needed
 781 003a 5DF804FB 		ldr	pc, [sp], #4
 782              	.L52:
 783              		.cfi_restore_state
 374:Core/Src/main.c ****   }
 784              		.loc 1 374 5 is_stmt 1 view .LVU237
 785 003e FFF7FEFF 		bl	Error_Handler
 786              	.LVL37:
 787              	.L53:
 380:Core/Src/main.c ****   }
 788              		.loc 1 380 5 view .LVU238
 789 0042 FFF7FEFF 		bl	Error_Handler
 790              	.LVL38:
 791              	.L55:
 792 0046 00BF     		.align	2
 793              	.L54:
 794 0048 00000000 		.word	htim7
 795 004c 00140040 		.word	1073746944
 796              		.cfi_endproc
 797              	.LFE140:
 799              		.section	.text.SystemClock_Config,"ax",%progbits
 800              		.align	1
 801              		.global	SystemClock_Config
 802              		.syntax unified
 803              		.thumb
 804              		.thumb_func
 806              	SystemClock_Config:
 807              	.LFB136:
ARM GAS  C:\Users\kpetr\AppData\Local\Temp\cc6WsH7z.s 			page 30


 160:Core/Src/main.c ****   RCC_OscInitTypeDef RCC_OscInitStruct = {0};
 808              		.loc 1 160 1 view -0
 809              		.cfi_startproc
 810              		@ args = 0, pretend = 0, frame = 88
 811              		@ frame_needed = 0, uses_anonymous_args = 0
 812 0000 00B5     		push	{lr}
 813              		.cfi_def_cfa_offset 4
 814              		.cfi_offset 14, -4
 815 0002 97B0     		sub	sp, sp, #92
 816              		.cfi_def_cfa_offset 96
 161:Core/Src/main.c ****   RCC_ClkInitTypeDef RCC_ClkInitStruct = {0};
 817              		.loc 1 161 3 view .LVU240
 161:Core/Src/main.c ****   RCC_ClkInitTypeDef RCC_ClkInitStruct = {0};
 818              		.loc 1 161 22 is_stmt 0 view .LVU241
 819 0004 4422     		movs	r2, #68
 820 0006 0021     		movs	r1, #0
 821 0008 05A8     		add	r0, sp, #20
 822 000a FFF7FEFF 		bl	memset
 823              	.LVL39:
 162:Core/Src/main.c **** 
 824              		.loc 1 162 3 is_stmt 1 view .LVU242
 162:Core/Src/main.c **** 
 825              		.loc 1 162 22 is_stmt 0 view .LVU243
 826 000e 0023     		movs	r3, #0
 827 0010 0093     		str	r3, [sp]
 828 0012 0193     		str	r3, [sp, #4]
 829 0014 0293     		str	r3, [sp, #8]
 830 0016 0393     		str	r3, [sp, #12]
 831 0018 0493     		str	r3, [sp, #16]
 166:Core/Src/main.c ****   {
 832              		.loc 1 166 3 is_stmt 1 view .LVU244
 166:Core/Src/main.c ****   {
 833              		.loc 1 166 7 is_stmt 0 view .LVU245
 834 001a 4FF40070 		mov	r0, #512
 835 001e FFF7FEFF 		bl	HAL_PWREx_ControlVoltageScaling
 836              	.LVL40:
 166:Core/Src/main.c ****   {
 837              		.loc 1 166 6 discriminator 1 view .LVU246
 838 0022 0028     		cmp	r0, #0
 839 0024 31D1     		bne	.L61
 173:Core/Src/main.c ****   __HAL_RCC_LSEDRIVE_CONFIG(RCC_LSEDRIVE_LOW);
 840              		.loc 1 173 3 is_stmt 1 view .LVU247
 841 0026 FFF7FEFF 		bl	HAL_PWR_EnableBkUpAccess
 842              	.LVL41:
 174:Core/Src/main.c **** 
 843              		.loc 1 174 3 view .LVU248
 844 002a 1B4A     		ldr	r2, .L64
 845 002c D2F89030 		ldr	r3, [r2, #144]
 846 0030 23F01803 		bic	r3, r3, #24
 847 0034 C2F89030 		str	r3, [r2, #144]
 179:Core/Src/main.c ****   RCC_OscInitStruct.LSEState = RCC_LSE_ON;
 848              		.loc 1 179 3 view .LVU249
 179:Core/Src/main.c ****   RCC_OscInitStruct.LSEState = RCC_LSE_ON;
 849              		.loc 1 179 36 is_stmt 0 view .LVU250
 850 0038 1423     		movs	r3, #20
 851 003a 0593     		str	r3, [sp, #20]
 180:Core/Src/main.c ****   RCC_OscInitStruct.MSIState = RCC_MSI_ON;
ARM GAS  C:\Users\kpetr\AppData\Local\Temp\cc6WsH7z.s 			page 31


 852              		.loc 1 180 3 is_stmt 1 view .LVU251
 180:Core/Src/main.c ****   RCC_OscInitStruct.MSIState = RCC_MSI_ON;
 853              		.loc 1 180 30 is_stmt 0 view .LVU252
 854 003c 0123     		movs	r3, #1
 855 003e 0793     		str	r3, [sp, #28]
 181:Core/Src/main.c ****   RCC_OscInitStruct.MSICalibrationValue = 0;
 856              		.loc 1 181 3 is_stmt 1 view .LVU253
 181:Core/Src/main.c ****   RCC_OscInitStruct.MSICalibrationValue = 0;
 857              		.loc 1 181 30 is_stmt 0 view .LVU254
 858 0040 0B93     		str	r3, [sp, #44]
 182:Core/Src/main.c ****   RCC_OscInitStruct.MSIClockRange = RCC_MSIRANGE_6;
 859              		.loc 1 182 3 is_stmt 1 view .LVU255
 182:Core/Src/main.c ****   RCC_OscInitStruct.MSIClockRange = RCC_MSIRANGE_6;
 860              		.loc 1 182 41 is_stmt 0 view .LVU256
 861 0042 0022     		movs	r2, #0
 862 0044 0C92     		str	r2, [sp, #48]
 183:Core/Src/main.c ****   RCC_OscInitStruct.PLL.PLLState = RCC_PLL_ON;
 863              		.loc 1 183 3 is_stmt 1 view .LVU257
 183:Core/Src/main.c ****   RCC_OscInitStruct.PLL.PLLState = RCC_PLL_ON;
 864              		.loc 1 183 35 is_stmt 0 view .LVU258
 865 0046 6022     		movs	r2, #96
 866 0048 0D92     		str	r2, [sp, #52]
 184:Core/Src/main.c ****   RCC_OscInitStruct.PLL.PLLSource = RCC_PLLSOURCE_MSI;
 867              		.loc 1 184 3 is_stmt 1 view .LVU259
 184:Core/Src/main.c ****   RCC_OscInitStruct.PLL.PLLSource = RCC_PLLSOURCE_MSI;
 868              		.loc 1 184 34 is_stmt 0 view .LVU260
 869 004a 0222     		movs	r2, #2
 870 004c 0F92     		str	r2, [sp, #60]
 185:Core/Src/main.c ****   RCC_OscInitStruct.PLL.PLLM = 1;
 871              		.loc 1 185 3 is_stmt 1 view .LVU261
 185:Core/Src/main.c ****   RCC_OscInitStruct.PLL.PLLM = 1;
 872              		.loc 1 185 35 is_stmt 0 view .LVU262
 873 004e 1093     		str	r3, [sp, #64]
 186:Core/Src/main.c ****   RCC_OscInitStruct.PLL.PLLN = 16;
 874              		.loc 1 186 3 is_stmt 1 view .LVU263
 186:Core/Src/main.c ****   RCC_OscInitStruct.PLL.PLLN = 16;
 875              		.loc 1 186 30 is_stmt 0 view .LVU264
 876 0050 1193     		str	r3, [sp, #68]
 187:Core/Src/main.c ****   RCC_OscInitStruct.PLL.PLLP = RCC_PLLP_DIV7;
 877              		.loc 1 187 3 is_stmt 1 view .LVU265
 187:Core/Src/main.c ****   RCC_OscInitStruct.PLL.PLLP = RCC_PLLP_DIV7;
 878              		.loc 1 187 30 is_stmt 0 view .LVU266
 879 0052 1023     		movs	r3, #16
 880 0054 1293     		str	r3, [sp, #72]
 188:Core/Src/main.c ****   RCC_OscInitStruct.PLL.PLLQ = RCC_PLLQ_DIV2;
 881              		.loc 1 188 3 is_stmt 1 view .LVU267
 188:Core/Src/main.c ****   RCC_OscInitStruct.PLL.PLLQ = RCC_PLLQ_DIV2;
 882              		.loc 1 188 30 is_stmt 0 view .LVU268
 883 0056 0723     		movs	r3, #7
 884 0058 1393     		str	r3, [sp, #76]
 189:Core/Src/main.c ****   RCC_OscInitStruct.PLL.PLLR = RCC_PLLR_DIV2;
 885              		.loc 1 189 3 is_stmt 1 view .LVU269
 189:Core/Src/main.c ****   RCC_OscInitStruct.PLL.PLLR = RCC_PLLR_DIV2;
 886              		.loc 1 189 30 is_stmt 0 view .LVU270
 887 005a 1492     		str	r2, [sp, #80]
 190:Core/Src/main.c ****   if (HAL_RCC_OscConfig(&RCC_OscInitStruct) != HAL_OK)
 888              		.loc 1 190 3 is_stmt 1 view .LVU271
ARM GAS  C:\Users\kpetr\AppData\Local\Temp\cc6WsH7z.s 			page 32


 190:Core/Src/main.c ****   if (HAL_RCC_OscConfig(&RCC_OscInitStruct) != HAL_OK)
 889              		.loc 1 190 30 is_stmt 0 view .LVU272
 890 005c 1592     		str	r2, [sp, #84]
 191:Core/Src/main.c ****   {
 891              		.loc 1 191 3 is_stmt 1 view .LVU273
 191:Core/Src/main.c ****   {
 892              		.loc 1 191 7 is_stmt 0 view .LVU274
 893 005e 05A8     		add	r0, sp, #20
 894 0060 FFF7FEFF 		bl	HAL_RCC_OscConfig
 895              	.LVL42:
 191:Core/Src/main.c ****   {
 896              		.loc 1 191 6 discriminator 1 view .LVU275
 897 0064 98B9     		cbnz	r0, .L62
 198:Core/Src/main.c ****                               |RCC_CLOCKTYPE_PCLK1|RCC_CLOCKTYPE_PCLK2;
 898              		.loc 1 198 3 is_stmt 1 view .LVU276
 198:Core/Src/main.c ****                               |RCC_CLOCKTYPE_PCLK1|RCC_CLOCKTYPE_PCLK2;
 899              		.loc 1 198 31 is_stmt 0 view .LVU277
 900 0066 0F23     		movs	r3, #15
 901 0068 0093     		str	r3, [sp]
 200:Core/Src/main.c ****   RCC_ClkInitStruct.AHBCLKDivider = RCC_SYSCLK_DIV1;
 902              		.loc 1 200 3 is_stmt 1 view .LVU278
 200:Core/Src/main.c ****   RCC_ClkInitStruct.AHBCLKDivider = RCC_SYSCLK_DIV1;
 903              		.loc 1 200 34 is_stmt 0 view .LVU279
 904 006a 0323     		movs	r3, #3
 905 006c 0193     		str	r3, [sp, #4]
 201:Core/Src/main.c ****   RCC_ClkInitStruct.APB1CLKDivider = RCC_HCLK_DIV1;
 906              		.loc 1 201 3 is_stmt 1 view .LVU280
 201:Core/Src/main.c ****   RCC_ClkInitStruct.APB1CLKDivider = RCC_HCLK_DIV1;
 907              		.loc 1 201 35 is_stmt 0 view .LVU281
 908 006e 0023     		movs	r3, #0
 909 0070 0293     		str	r3, [sp, #8]
 202:Core/Src/main.c ****   RCC_ClkInitStruct.APB2CLKDivider = RCC_HCLK_DIV1;
 910              		.loc 1 202 3 is_stmt 1 view .LVU282
 202:Core/Src/main.c ****   RCC_ClkInitStruct.APB2CLKDivider = RCC_HCLK_DIV1;
 911              		.loc 1 202 36 is_stmt 0 view .LVU283
 912 0072 0393     		str	r3, [sp, #12]
 203:Core/Src/main.c **** 
 913              		.loc 1 203 3 is_stmt 1 view .LVU284
 203:Core/Src/main.c **** 
 914              		.loc 1 203 36 is_stmt 0 view .LVU285
 915 0074 0493     		str	r3, [sp, #16]
 205:Core/Src/main.c ****   {
 916              		.loc 1 205 3 is_stmt 1 view .LVU286
 205:Core/Src/main.c ****   {
 917              		.loc 1 205 7 is_stmt 0 view .LVU287
 918 0076 0121     		movs	r1, #1
 919 0078 6846     		mov	r0, sp
 920 007a FFF7FEFF 		bl	HAL_RCC_ClockConfig
 921              	.LVL43:
 205:Core/Src/main.c ****   {
 922              		.loc 1 205 6 discriminator 1 view .LVU288
 923 007e 40B9     		cbnz	r0, .L63
 212:Core/Src/main.c **** }
 924              		.loc 1 212 3 is_stmt 1 view .LVU289
 925 0080 FFF7FEFF 		bl	HAL_RCCEx_EnableMSIPLLMode
 926              	.LVL44:
 213:Core/Src/main.c **** 
ARM GAS  C:\Users\kpetr\AppData\Local\Temp\cc6WsH7z.s 			page 33


 927              		.loc 1 213 1 is_stmt 0 view .LVU290
 928 0084 17B0     		add	sp, sp, #92
 929              		.cfi_remember_state
 930              		.cfi_def_cfa_offset 4
 931              		@ sp needed
 932 0086 5DF804FB 		ldr	pc, [sp], #4
 933              	.L61:
 934              		.cfi_restore_state
 168:Core/Src/main.c ****   }
 935              		.loc 1 168 5 is_stmt 1 view .LVU291
 936 008a FFF7FEFF 		bl	Error_Handler
 937              	.LVL45:
 938              	.L62:
 193:Core/Src/main.c ****   }
 939              		.loc 1 193 5 view .LVU292
 940 008e FFF7FEFF 		bl	Error_Handler
 941              	.LVL46:
 942              	.L63:
 207:Core/Src/main.c ****   }
 943              		.loc 1 207 5 view .LVU293
 944 0092 FFF7FEFF 		bl	Error_Handler
 945              	.LVL47:
 946              	.L65:
 947 0096 00BF     		.align	2
 948              	.L64:
 949 0098 00100240 		.word	1073876992
 950              		.cfi_endproc
 951              	.LFE136:
 953              		.section	.rodata.main.str1.4,"aMS",%progbits,1
 954              		.align	2
 955              	.LC0:
 956 0000 25642072 		.ascii	"%d rpm\012\000"
 956      706D0A00 
 957              		.section	.text.main,"ax",%progbits
 958              		.align	1
 959              		.global	main
 960              		.syntax unified
 961              		.thumb
 962              		.thumb_func
 964              	main:
 965              	.LFB135:
  95:Core/Src/main.c ****   /* USER CODE BEGIN 1 */
 966              		.loc 1 95 1 view -0
 967              		.cfi_startproc
 968              		@ Volatile: function does not return.
 969              		@ args = 0, pretend = 0, frame = 0
 970              		@ frame_needed = 0, uses_anonymous_args = 0
 971 0000 08B5     		push	{r3, lr}
 972              		.cfi_def_cfa_offset 8
 973              		.cfi_offset 3, -8
 974              		.cfi_offset 14, -4
 103:Core/Src/main.c **** 
 975              		.loc 1 103 3 view .LVU295
 976 0002 FFF7FEFF 		bl	HAL_Init
 977              	.LVL48:
 110:Core/Src/main.c **** 
 978              		.loc 1 110 3 view .LVU296
ARM GAS  C:\Users\kpetr\AppData\Local\Temp\cc6WsH7z.s 			page 34


 979 0006 FFF7FEFF 		bl	SystemClock_Config
 980              	.LVL49:
 117:Core/Src/main.c ****   MX_I2C1_Init();
 981              		.loc 1 117 3 view .LVU297
 982 000a FFF7FEFF 		bl	MX_GPIO_Init
 983              	.LVL50:
 118:Core/Src/main.c ****   MX_TIM6_Init();
 984              		.loc 1 118 3 view .LVU298
 985 000e FFF7FEFF 		bl	MX_I2C1_Init
 986              	.LVL51:
 119:Core/Src/main.c ****   MX_USART2_UART_Init();
 987              		.loc 1 119 3 view .LVU299
 988 0012 FFF7FEFF 		bl	MX_TIM6_Init
 989              	.LVL52:
 120:Core/Src/main.c ****   MX_TIM2_Init();
 990              		.loc 1 120 3 view .LVU300
 991 0016 FFF7FEFF 		bl	MX_USART2_UART_Init
 992              	.LVL53:
 121:Core/Src/main.c ****   MX_TIM7_Init();
 993              		.loc 1 121 3 view .LVU301
 994 001a FFF7FEFF 		bl	MX_TIM2_Init
 995              	.LVL54:
 122:Core/Src/main.c ****   /* USER CODE BEGIN 2 */
 996              		.loc 1 122 3 view .LVU302
 997 001e FFF7FEFF 		bl	MX_TIM7_Init
 998              	.LVL55:
 125:Core/Src/main.c ****   if(HAL_TIM_Base_Start_IT(&htim6) != HAL_OK){ //run TIM6 timer
 999              		.loc 1 125 3 view .LVU303
 1000 0022 FFF7FEFF 		bl	SSD1306_Init
 1001              	.LVL56:
 126:Core/Src/main.c ****     //ErrorHandler();
 1002              		.loc 1 126 3 view .LVU304
 126:Core/Src/main.c ****     //ErrorHandler();
 1003              		.loc 1 126 6 is_stmt 0 view .LVU305
 1004 0026 1048     		ldr	r0, .L69
 1005 0028 FFF7FEFF 		bl	HAL_TIM_Base_Start_IT
 1006              	.LVL57:
 128:Core/Src/main.c ****   if(HAL_TIM_Base_Start_IT(&htim7) != HAL_OK){ //run TIM6 timer
 1007              		.loc 1 128 3 is_stmt 1 view .LVU306
 129:Core/Src/main.c ****     //ErrorHandler();
 1008              		.loc 1 129 3 view .LVU307
 129:Core/Src/main.c ****     //ErrorHandler();
 1009              		.loc 1 129 6 is_stmt 0 view .LVU308
 1010 002c 0F48     		ldr	r0, .L69+4
 1011 002e FFF7FEFF 		bl	HAL_TIM_Base_Start_IT
 1012              	.LVL58:
 131:Core/Src/main.c ****    HAL_TIM_Encoder_Start(&htim2, TIM_CHANNEL_ALL);
 1013              		.loc 1 131 3 is_stmt 1 view .LVU309
 132:Core/Src/main.c **** 
 1014              		.loc 1 132 4 view .LVU310
 1015 0032 3C21     		movs	r1, #60
 1016 0034 0E48     		ldr	r0, .L69+8
 1017 0036 FFF7FEFF 		bl	HAL_TIM_Encoder_Start
 1018              	.LVL59:
 1019              	.L67:
 138:Core/Src/main.c ****   {
 1020              		.loc 1 138 3 view .LVU311
ARM GAS  C:\Users\kpetr\AppData\Local\Temp\cc6WsH7z.s 			page 35


 147:Core/Src/main.c ****     SSD1306_GotoXY(10,10);
 1021              		.loc 1 147 5 view .LVU312
 1022 003a 0E4B     		ldr	r3, .L69+12
 1023 003c D3ED007A 		vldr.32	s15, [r3]
 1024 0040 0D4C     		ldr	r4, .L69+16
 1025 0042 FDEEE77A 		vcvt.s32.f32	s15, s15
 1026 0046 17EE902A 		vmov	r2, s15	@ int
 1027 004a 0C49     		ldr	r1, .L69+20
 1028 004c 2046     		mov	r0, r4
 1029 004e FFF7FEFF 		bl	sprintf
 1030              	.LVL60:
 148:Core/Src/main.c ****     SSD1306_Puts(SPEED_buffer,&Font_11x18,1);
 1031              		.loc 1 148 5 view .LVU313
 1032 0052 0A21     		movs	r1, #10
 1033 0054 0846     		mov	r0, r1
 1034 0056 FFF7FEFF 		bl	SSD1306_GotoXY
 1035              	.LVL61:
 149:Core/Src/main.c **** 
 1036              		.loc 1 149 5 discriminator 1 view .LVU314
 1037 005a 0122     		movs	r2, #1
 1038 005c 0849     		ldr	r1, .L69+24
 1039 005e 2046     		mov	r0, r4
 1040 0060 FFF7FEFF 		bl	SSD1306_Puts
 1041              	.LVL62:
 138:Core/Src/main.c ****   {
 1042              		.loc 1 138 9 view .LVU315
 1043 0064 E9E7     		b	.L67
 1044              	.L70:
 1045 0066 00BF     		.align	2
 1046              	.L69:
 1047 0068 00000000 		.word	htim6
 1048 006c 00000000 		.word	htim7
 1049 0070 00000000 		.word	htim2
 1050 0074 00000000 		.word	MAIN_speed
 1051 0078 00000000 		.word	SPEED_buffer
 1052 007c 00000000 		.word	.LC0
 1053 0080 00000000 		.word	Font_11x18
 1054              		.cfi_endproc
 1055              	.LFE135:
 1057              		.section	.bss.lastCount.0,"aw",%nobits
 1058              		.align	2
 1061              	lastCount.0:
 1062 0000 00000000 		.space	4
 1063              		.section	.bss.lastTicks.1,"aw",%nobits
 1064              		.align	2
 1067              	lastTicks.1:
 1068 0000 00000000 		.space	4
 1069              		.global	current_rpm
 1070              		.section	.bss.current_rpm,"aw",%nobits
 1071              		.align	2
 1074              	current_rpm:
 1075 0000 00000000 		.space	4
 1076              		.global	previous_encoder_time
 1077              		.section	.bss.previous_encoder_time,"aw",%nobits
 1078              		.align	2
 1081              	previous_encoder_time:
 1082 0000 00000000 		.space	4
ARM GAS  C:\Users\kpetr\AppData\Local\Temp\cc6WsH7z.s 			page 36


 1083              		.global	previous_encoder_count
 1084              		.section	.bss.previous_encoder_count,"aw",%nobits
 1085              		.align	2
 1088              	previous_encoder_count:
 1089 0000 00000000 		.space	4
 1090              		.global	int_part
 1091              		.section	.bss.int_part,"aw",%nobits
 1092              		.align	2
 1095              	int_part:
 1096 0000 00000000 		.space	4
 1097              		.global	frac_part
 1098              		.section	.bss.frac_part,"aw",%nobits
 1099              		.align	2
 1102              	frac_part:
 1103 0000 00000000 		.space	4
 1104              		.global	SPEED_buffer
 1105              		.section	.bss.SPEED_buffer,"aw",%nobits
 1106              		.align	2
 1109              	SPEED_buffer:
 1110 0000 00000000 		.space	20
 1110      00000000 
 1110      00000000 
 1110      00000000 
 1110      00000000 
 1111              		.global	MAIN_speed
 1112              		.section	.bss.MAIN_speed,"aw",%nobits
 1113              		.align	2
 1116              	MAIN_speed:
 1117 0000 00000000 		.space	4
 1118              		.global	huart2
 1119              		.section	.bss.huart2,"aw",%nobits
 1120              		.align	2
 1123              	huart2:
 1124 0000 00000000 		.space	132
 1124      00000000 
 1124      00000000 
 1124      00000000 
 1124      00000000 
 1125              		.global	htim7
 1126              		.section	.bss.htim7,"aw",%nobits
 1127              		.align	2
 1130              	htim7:
 1131 0000 00000000 		.space	76
 1131      00000000 
 1131      00000000 
 1131      00000000 
 1131      00000000 
 1132              		.global	htim6
 1133              		.section	.bss.htim6,"aw",%nobits
 1134              		.align	2
 1137              	htim6:
 1138 0000 00000000 		.space	76
 1138      00000000 
 1138      00000000 
 1138      00000000 
 1138      00000000 
 1139              		.global	htim2
ARM GAS  C:\Users\kpetr\AppData\Local\Temp\cc6WsH7z.s 			page 37


 1140              		.section	.bss.htim2,"aw",%nobits
 1141              		.align	2
 1144              	htim2:
 1145 0000 00000000 		.space	76
 1145      00000000 
 1145      00000000 
 1145      00000000 
 1145      00000000 
 1146              		.global	hi2c1
 1147              		.section	.bss.hi2c1,"aw",%nobits
 1148              		.align	2
 1151              	hi2c1:
 1152 0000 00000000 		.space	84
 1152      00000000 
 1152      00000000 
 1152      00000000 
 1152      00000000 
 1153              		.text
 1154              	.Letext0:
 1155              		.file 3 "C:/Users/kpetr/AppData/Roaming/Code/User/globalStorage/bmd.stm32-for-vscode/@xpack-dev-to
 1156              		.file 4 "C:/Users/kpetr/AppData/Roaming/Code/User/globalStorage/bmd.stm32-for-vscode/@xpack-dev-to
 1157              		.file 5 "Drivers/CMSIS/Device/ST/STM32L4xx/Include/stm32l432xx.h"
 1158              		.file 6 "C:/Users/kpetr/AppData/Roaming/Code/User/globalStorage/bmd.stm32-for-vscode/@xpack-dev-to
 1159              		.file 7 "Drivers/STM32L4xx_HAL_Driver/Inc/stm32l4xx_hal_def.h"
 1160              		.file 8 "Drivers/STM32L4xx_HAL_Driver/Inc/stm32l4xx_hal_rcc.h"
 1161              		.file 9 "Drivers/STM32L4xx_HAL_Driver/Inc/stm32l4xx_hal_gpio.h"
 1162              		.file 10 "Drivers/STM32L4xx_HAL_Driver/Inc/stm32l4xx_hal_dma.h"
 1163              		.file 11 "Drivers/STM32L4xx_HAL_Driver/Inc/stm32l4xx_hal_i2c.h"
 1164              		.file 12 "Drivers/STM32L4xx_HAL_Driver/Inc/stm32l4xx_hal_tim.h"
 1165              		.file 13 "Drivers/STM32L4xx_HAL_Driver/Inc/stm32l4xx_hal_uart.h"
 1166              		.file 14 "Core/Inc/fonts.h"
 1167              		.file 15 "Core/Inc/ssd1306.h"
 1168              		.file 16 "Core/Inc/globals.h"
 1169              		.file 17 "C:/Users/kpetr/AppData/Roaming/Code/User/globalStorage/bmd.stm32-for-vscode/@xpack-dev-t
 1170              		.file 18 "Drivers/STM32L4xx_HAL_Driver/Inc/stm32l4xx_hal_rcc_ex.h"
 1171              		.file 19 "Drivers/STM32L4xx_HAL_Driver/Inc/stm32l4xx_hal_pwr.h"
 1172              		.file 20 "Drivers/STM32L4xx_HAL_Driver/Inc/stm32l4xx_hal_pwr_ex.h"
 1173              		.file 21 "Drivers/STM32L4xx_HAL_Driver/Inc/stm32l4xx_hal_tim_ex.h"
 1174              		.file 22 "Drivers/STM32L4xx_HAL_Driver/Inc/stm32l4xx_hal_i2c_ex.h"
 1175              		.file 23 "C:/Users/kpetr/AppData/Roaming/Code/User/globalStorage/bmd.stm32-for-vscode/@xpack-dev-t
 1176              		.file 24 "Drivers/STM32L4xx_HAL_Driver/Inc/stm32l4xx_hal.h"
 1177              		.file 25 "<built-in>"
ARM GAS  C:\Users\kpetr\AppData\Local\Temp\cc6WsH7z.s 			page 38

