ARM GAS  C:\Users\kpetr\AppData\Local\Temp\ccHS5E62.s 			page 1


   1              		.cpu cortex-m4
   2              		.arch armv7e-m
   3              		.fpu fpv4-sp-d16
   4              		.eabi_attribute 27, 1
   5              		.eabi_attribute 28, 1
   6              		.eabi_attribute 20, 1
   7              		.eabi_attribute 21, 1
   8              		.eabi_attribute 23, 3
   9              		.eabi_attribute 24, 1
  10              		.eabi_attribute 25, 1
  11              		.eabi_attribute 26, 1
  12              		.eabi_attribute 30, 1
  13              		.eabi_attribute 34, 1
  14              		.eabi_attribute 18, 4
  15              		.file	"stm32l4xx_it.c"
  16              		.text
  17              	.Ltext0:
  18              		.cfi_sections	.debug_frame
  19              		.file 1 "Core/Src/stm32l4xx_it.c"
  20              		.section	.text.NMI_Handler,"ax",%progbits
  21              		.align	1
  22              		.global	NMI_Handler
  23              		.syntax unified
  24              		.thumb
  25              		.thumb_func
  27              	NMI_Handler:
  28              	.LFB132:
   1:Core/Src/stm32l4xx_it.c **** /* USER CODE BEGIN Header */
   2:Core/Src/stm32l4xx_it.c **** /**
   3:Core/Src/stm32l4xx_it.c ****   ******************************************************************************
   4:Core/Src/stm32l4xx_it.c ****   * @file    stm32l4xx_it.c
   5:Core/Src/stm32l4xx_it.c ****   * @brief   Interrupt Service Routines.
   6:Core/Src/stm32l4xx_it.c ****   ******************************************************************************
   7:Core/Src/stm32l4xx_it.c ****   * @attention
   8:Core/Src/stm32l4xx_it.c ****   *
   9:Core/Src/stm32l4xx_it.c ****   * Copyright (c) 2024 STMicroelectronics.
  10:Core/Src/stm32l4xx_it.c ****   * All rights reserved.
  11:Core/Src/stm32l4xx_it.c ****   *
  12:Core/Src/stm32l4xx_it.c ****   * This software is licensed under terms that can be found in the LICENSE file
  13:Core/Src/stm32l4xx_it.c ****   * in the root directory of this software component.
  14:Core/Src/stm32l4xx_it.c ****   * If no LICENSE file comes with this software, it is provided AS-IS.
  15:Core/Src/stm32l4xx_it.c ****   *
  16:Core/Src/stm32l4xx_it.c ****   ******************************************************************************
  17:Core/Src/stm32l4xx_it.c ****   */
  18:Core/Src/stm32l4xx_it.c **** /* USER CODE END Header */
  19:Core/Src/stm32l4xx_it.c **** 
  20:Core/Src/stm32l4xx_it.c **** /* Includes ------------------------------------------------------------------*/
  21:Core/Src/stm32l4xx_it.c **** #include "main.h"
  22:Core/Src/stm32l4xx_it.c **** #include "stm32l4xx_it.h"
  23:Core/Src/stm32l4xx_it.c **** /* Private includes ----------------------------------------------------------*/
  24:Core/Src/stm32l4xx_it.c **** /* USER CODE BEGIN Includes */
  25:Core/Src/stm32l4xx_it.c **** #include "ssd1306.h"
  26:Core/Src/stm32l4xx_it.c **** #include "fonts.h"
  27:Core/Src/stm32l4xx_it.c **** 
  28:Core/Src/stm32l4xx_it.c **** #include "globals.h"
  29:Core/Src/stm32l4xx_it.c **** /* USER CODE END Includes */
  30:Core/Src/stm32l4xx_it.c **** 
ARM GAS  C:\Users\kpetr\AppData\Local\Temp\ccHS5E62.s 			page 2


  31:Core/Src/stm32l4xx_it.c **** /* Private typedef -----------------------------------------------------------*/
  32:Core/Src/stm32l4xx_it.c **** /* USER CODE BEGIN TD */
  33:Core/Src/stm32l4xx_it.c **** 
  34:Core/Src/stm32l4xx_it.c **** /* USER CODE END TD */
  35:Core/Src/stm32l4xx_it.c **** 
  36:Core/Src/stm32l4xx_it.c **** /* Private define ------------------------------------------------------------*/
  37:Core/Src/stm32l4xx_it.c **** /* USER CODE BEGIN PD */
  38:Core/Src/stm32l4xx_it.c **** 
  39:Core/Src/stm32l4xx_it.c **** /* USER CODE END PD */
  40:Core/Src/stm32l4xx_it.c **** 
  41:Core/Src/stm32l4xx_it.c **** /* Private macro -------------------------------------------------------------*/
  42:Core/Src/stm32l4xx_it.c **** /* USER CODE BEGIN PM */
  43:Core/Src/stm32l4xx_it.c **** 
  44:Core/Src/stm32l4xx_it.c **** /* USER CODE END PM */
  45:Core/Src/stm32l4xx_it.c **** 
  46:Core/Src/stm32l4xx_it.c **** /* Private variables ---------------------------------------------------------*/
  47:Core/Src/stm32l4xx_it.c **** /* USER CODE BEGIN PV */
  48:Core/Src/stm32l4xx_it.c **** int counter = 0;
  49:Core/Src/stm32l4xx_it.c **** /* USER CODE END PV */
  50:Core/Src/stm32l4xx_it.c **** 
  51:Core/Src/stm32l4xx_it.c **** /* Private function prototypes -----------------------------------------------*/
  52:Core/Src/stm32l4xx_it.c **** /* USER CODE BEGIN PFP */
  53:Core/Src/stm32l4xx_it.c **** 
  54:Core/Src/stm32l4xx_it.c **** /* USER CODE END PFP */
  55:Core/Src/stm32l4xx_it.c **** 
  56:Core/Src/stm32l4xx_it.c **** /* Private user code ---------------------------------------------------------*/
  57:Core/Src/stm32l4xx_it.c **** /* USER CODE BEGIN 0 */
  58:Core/Src/stm32l4xx_it.c **** 
  59:Core/Src/stm32l4xx_it.c **** /* USER CODE END 0 */
  60:Core/Src/stm32l4xx_it.c **** 
  61:Core/Src/stm32l4xx_it.c **** /* External variables --------------------------------------------------------*/
  62:Core/Src/stm32l4xx_it.c **** extern TIM_HandleTypeDef htim6;
  63:Core/Src/stm32l4xx_it.c **** extern TIM_HandleTypeDef htim7;
  64:Core/Src/stm32l4xx_it.c **** /* USER CODE BEGIN EV */
  65:Core/Src/stm32l4xx_it.c **** 
  66:Core/Src/stm32l4xx_it.c **** /* USER CODE END EV */
  67:Core/Src/stm32l4xx_it.c **** 
  68:Core/Src/stm32l4xx_it.c **** /******************************************************************************/
  69:Core/Src/stm32l4xx_it.c **** /*           Cortex-M4 Processor Interruption and Exception Handlers          */
  70:Core/Src/stm32l4xx_it.c **** /******************************************************************************/
  71:Core/Src/stm32l4xx_it.c **** /**
  72:Core/Src/stm32l4xx_it.c ****   * @brief This function handles Non maskable interrupt.
  73:Core/Src/stm32l4xx_it.c ****   */
  74:Core/Src/stm32l4xx_it.c **** void NMI_Handler(void)
  75:Core/Src/stm32l4xx_it.c **** {
  29              		.loc 1 75 1 view -0
  30              		.cfi_startproc
  31              		@ Volatile: function does not return.
  32              		@ args = 0, pretend = 0, frame = 0
  33              		@ frame_needed = 0, uses_anonymous_args = 0
  34              		@ link register save eliminated.
  35              	.L2:
  76:Core/Src/stm32l4xx_it.c ****   /* USER CODE BEGIN NonMaskableInt_IRQn 0 */
  77:Core/Src/stm32l4xx_it.c **** 
  78:Core/Src/stm32l4xx_it.c ****   /* USER CODE END NonMaskableInt_IRQn 0 */
  79:Core/Src/stm32l4xx_it.c ****   /* USER CODE BEGIN NonMaskableInt_IRQn 1 */
  80:Core/Src/stm32l4xx_it.c ****   while (1)
ARM GAS  C:\Users\kpetr\AppData\Local\Temp\ccHS5E62.s 			page 3


  36              		.loc 1 80 3 view .LVU1
  81:Core/Src/stm32l4xx_it.c ****   {
  82:Core/Src/stm32l4xx_it.c ****   }
  37              		.loc 1 82 3 view .LVU2
  80:Core/Src/stm32l4xx_it.c ****   {
  38              		.loc 1 80 9 view .LVU3
  39 0000 FEE7     		b	.L2
  40              		.cfi_endproc
  41              	.LFE132:
  43              		.section	.text.HardFault_Handler,"ax",%progbits
  44              		.align	1
  45              		.global	HardFault_Handler
  46              		.syntax unified
  47              		.thumb
  48              		.thumb_func
  50              	HardFault_Handler:
  51              	.LFB133:
  83:Core/Src/stm32l4xx_it.c ****   /* USER CODE END NonMaskableInt_IRQn 1 */
  84:Core/Src/stm32l4xx_it.c **** }
  85:Core/Src/stm32l4xx_it.c **** 
  86:Core/Src/stm32l4xx_it.c **** /**
  87:Core/Src/stm32l4xx_it.c ****   * @brief This function handles Hard fault interrupt.
  88:Core/Src/stm32l4xx_it.c ****   */
  89:Core/Src/stm32l4xx_it.c **** void HardFault_Handler(void)
  90:Core/Src/stm32l4xx_it.c **** {
  52              		.loc 1 90 1 view -0
  53              		.cfi_startproc
  54              		@ Volatile: function does not return.
  55              		@ args = 0, pretend = 0, frame = 0
  56              		@ frame_needed = 0, uses_anonymous_args = 0
  57              		@ link register save eliminated.
  58              	.L4:
  91:Core/Src/stm32l4xx_it.c ****   /* USER CODE BEGIN HardFault_IRQn 0 */
  92:Core/Src/stm32l4xx_it.c **** 
  93:Core/Src/stm32l4xx_it.c ****   /* USER CODE END HardFault_IRQn 0 */
  94:Core/Src/stm32l4xx_it.c ****   while (1)
  59              		.loc 1 94 3 view .LVU5
  95:Core/Src/stm32l4xx_it.c ****   {
  96:Core/Src/stm32l4xx_it.c ****     /* USER CODE BEGIN W1_HardFault_IRQn 0 */
  97:Core/Src/stm32l4xx_it.c ****     /* USER CODE END W1_HardFault_IRQn 0 */
  98:Core/Src/stm32l4xx_it.c ****   }
  60              		.loc 1 98 3 view .LVU6
  94:Core/Src/stm32l4xx_it.c ****   {
  61              		.loc 1 94 9 view .LVU7
  62 0000 FEE7     		b	.L4
  63              		.cfi_endproc
  64              	.LFE133:
  66              		.section	.text.MemManage_Handler,"ax",%progbits
  67              		.align	1
  68              		.global	MemManage_Handler
  69              		.syntax unified
  70              		.thumb
  71              		.thumb_func
  73              	MemManage_Handler:
  74              	.LFB134:
  99:Core/Src/stm32l4xx_it.c **** }
 100:Core/Src/stm32l4xx_it.c **** 
ARM GAS  C:\Users\kpetr\AppData\Local\Temp\ccHS5E62.s 			page 4


 101:Core/Src/stm32l4xx_it.c **** /**
 102:Core/Src/stm32l4xx_it.c ****   * @brief This function handles Memory management fault.
 103:Core/Src/stm32l4xx_it.c ****   */
 104:Core/Src/stm32l4xx_it.c **** void MemManage_Handler(void)
 105:Core/Src/stm32l4xx_it.c **** {
  75              		.loc 1 105 1 view -0
  76              		.cfi_startproc
  77              		@ Volatile: function does not return.
  78              		@ args = 0, pretend = 0, frame = 0
  79              		@ frame_needed = 0, uses_anonymous_args = 0
  80              		@ link register save eliminated.
  81              	.L6:
 106:Core/Src/stm32l4xx_it.c ****   /* USER CODE BEGIN MemoryManagement_IRQn 0 */
 107:Core/Src/stm32l4xx_it.c **** 
 108:Core/Src/stm32l4xx_it.c ****   /* USER CODE END MemoryManagement_IRQn 0 */
 109:Core/Src/stm32l4xx_it.c ****   while (1)
  82              		.loc 1 109 3 view .LVU9
 110:Core/Src/stm32l4xx_it.c ****   {
 111:Core/Src/stm32l4xx_it.c ****     /* USER CODE BEGIN W1_MemoryManagement_IRQn 0 */
 112:Core/Src/stm32l4xx_it.c ****     /* USER CODE END W1_MemoryManagement_IRQn 0 */
 113:Core/Src/stm32l4xx_it.c ****   }
  83              		.loc 1 113 3 view .LVU10
 109:Core/Src/stm32l4xx_it.c ****   {
  84              		.loc 1 109 9 view .LVU11
  85 0000 FEE7     		b	.L6
  86              		.cfi_endproc
  87              	.LFE134:
  89              		.section	.text.BusFault_Handler,"ax",%progbits
  90              		.align	1
  91              		.global	BusFault_Handler
  92              		.syntax unified
  93              		.thumb
  94              		.thumb_func
  96              	BusFault_Handler:
  97              	.LFB135:
 114:Core/Src/stm32l4xx_it.c **** }
 115:Core/Src/stm32l4xx_it.c **** 
 116:Core/Src/stm32l4xx_it.c **** /**
 117:Core/Src/stm32l4xx_it.c ****   * @brief This function handles Prefetch fault, memory access fault.
 118:Core/Src/stm32l4xx_it.c ****   */
 119:Core/Src/stm32l4xx_it.c **** void BusFault_Handler(void)
 120:Core/Src/stm32l4xx_it.c **** {
  98              		.loc 1 120 1 view -0
  99              		.cfi_startproc
 100              		@ Volatile: function does not return.
 101              		@ args = 0, pretend = 0, frame = 0
 102              		@ frame_needed = 0, uses_anonymous_args = 0
 103              		@ link register save eliminated.
 104              	.L8:
 121:Core/Src/stm32l4xx_it.c ****   /* USER CODE BEGIN BusFault_IRQn 0 */
 122:Core/Src/stm32l4xx_it.c **** 
 123:Core/Src/stm32l4xx_it.c ****   /* USER CODE END BusFault_IRQn 0 */
 124:Core/Src/stm32l4xx_it.c ****   while (1)
 105              		.loc 1 124 3 view .LVU13
 125:Core/Src/stm32l4xx_it.c ****   {
 126:Core/Src/stm32l4xx_it.c ****     /* USER CODE BEGIN W1_BusFault_IRQn 0 */
 127:Core/Src/stm32l4xx_it.c ****     /* USER CODE END W1_BusFault_IRQn 0 */
ARM GAS  C:\Users\kpetr\AppData\Local\Temp\ccHS5E62.s 			page 5


 128:Core/Src/stm32l4xx_it.c ****   }
 106              		.loc 1 128 3 view .LVU14
 124:Core/Src/stm32l4xx_it.c ****   {
 107              		.loc 1 124 9 view .LVU15
 108 0000 FEE7     		b	.L8
 109              		.cfi_endproc
 110              	.LFE135:
 112              		.section	.text.UsageFault_Handler,"ax",%progbits
 113              		.align	1
 114              		.global	UsageFault_Handler
 115              		.syntax unified
 116              		.thumb
 117              		.thumb_func
 119              	UsageFault_Handler:
 120              	.LFB136:
 129:Core/Src/stm32l4xx_it.c **** }
 130:Core/Src/stm32l4xx_it.c **** 
 131:Core/Src/stm32l4xx_it.c **** /**
 132:Core/Src/stm32l4xx_it.c ****   * @brief This function handles Undefined instruction or illegal state.
 133:Core/Src/stm32l4xx_it.c ****   */
 134:Core/Src/stm32l4xx_it.c **** void UsageFault_Handler(void)
 135:Core/Src/stm32l4xx_it.c **** {
 121              		.loc 1 135 1 view -0
 122              		.cfi_startproc
 123              		@ Volatile: function does not return.
 124              		@ args = 0, pretend = 0, frame = 0
 125              		@ frame_needed = 0, uses_anonymous_args = 0
 126              		@ link register save eliminated.
 127              	.L10:
 136:Core/Src/stm32l4xx_it.c ****   /* USER CODE BEGIN UsageFault_IRQn 0 */
 137:Core/Src/stm32l4xx_it.c **** 
 138:Core/Src/stm32l4xx_it.c ****   /* USER CODE END UsageFault_IRQn 0 */
 139:Core/Src/stm32l4xx_it.c ****   while (1)
 128              		.loc 1 139 3 view .LVU17
 140:Core/Src/stm32l4xx_it.c ****   {
 141:Core/Src/stm32l4xx_it.c ****     /* USER CODE BEGIN W1_UsageFault_IRQn 0 */
 142:Core/Src/stm32l4xx_it.c ****     /* USER CODE END W1_UsageFault_IRQn 0 */
 143:Core/Src/stm32l4xx_it.c ****   }
 129              		.loc 1 143 3 view .LVU18
 139:Core/Src/stm32l4xx_it.c ****   {
 130              		.loc 1 139 9 view .LVU19
 131 0000 FEE7     		b	.L10
 132              		.cfi_endproc
 133              	.LFE136:
 135              		.section	.text.SVC_Handler,"ax",%progbits
 136              		.align	1
 137              		.global	SVC_Handler
 138              		.syntax unified
 139              		.thumb
 140              		.thumb_func
 142              	SVC_Handler:
 143              	.LFB137:
 144:Core/Src/stm32l4xx_it.c **** }
 145:Core/Src/stm32l4xx_it.c **** 
 146:Core/Src/stm32l4xx_it.c **** /**
 147:Core/Src/stm32l4xx_it.c ****   * @brief This function handles System service call via SWI instruction.
 148:Core/Src/stm32l4xx_it.c ****   */
ARM GAS  C:\Users\kpetr\AppData\Local\Temp\ccHS5E62.s 			page 6


 149:Core/Src/stm32l4xx_it.c **** void SVC_Handler(void)
 150:Core/Src/stm32l4xx_it.c **** {
 144              		.loc 1 150 1 view -0
 145              		.cfi_startproc
 146              		@ args = 0, pretend = 0, frame = 0
 147              		@ frame_needed = 0, uses_anonymous_args = 0
 148              		@ link register save eliminated.
 151:Core/Src/stm32l4xx_it.c ****   /* USER CODE BEGIN SVCall_IRQn 0 */
 152:Core/Src/stm32l4xx_it.c **** 
 153:Core/Src/stm32l4xx_it.c ****   /* USER CODE END SVCall_IRQn 0 */
 154:Core/Src/stm32l4xx_it.c ****   /* USER CODE BEGIN SVCall_IRQn 1 */
 155:Core/Src/stm32l4xx_it.c **** 
 156:Core/Src/stm32l4xx_it.c ****   /* USER CODE END SVCall_IRQn 1 */
 157:Core/Src/stm32l4xx_it.c **** }
 149              		.loc 1 157 1 view .LVU21
 150 0000 7047     		bx	lr
 151              		.cfi_endproc
 152              	.LFE137:
 154              		.section	.text.DebugMon_Handler,"ax",%progbits
 155              		.align	1
 156              		.global	DebugMon_Handler
 157              		.syntax unified
 158              		.thumb
 159              		.thumb_func
 161              	DebugMon_Handler:
 162              	.LFB138:
 158:Core/Src/stm32l4xx_it.c **** 
 159:Core/Src/stm32l4xx_it.c **** /**
 160:Core/Src/stm32l4xx_it.c ****   * @brief This function handles Debug monitor.
 161:Core/Src/stm32l4xx_it.c ****   */
 162:Core/Src/stm32l4xx_it.c **** void DebugMon_Handler(void)
 163:Core/Src/stm32l4xx_it.c **** {
 163              		.loc 1 163 1 view -0
 164              		.cfi_startproc
 165              		@ args = 0, pretend = 0, frame = 0
 166              		@ frame_needed = 0, uses_anonymous_args = 0
 167              		@ link register save eliminated.
 164:Core/Src/stm32l4xx_it.c ****   /* USER CODE BEGIN DebugMonitor_IRQn 0 */
 165:Core/Src/stm32l4xx_it.c **** 
 166:Core/Src/stm32l4xx_it.c ****   /* USER CODE END DebugMonitor_IRQn 0 */
 167:Core/Src/stm32l4xx_it.c ****   /* USER CODE BEGIN DebugMonitor_IRQn 1 */
 168:Core/Src/stm32l4xx_it.c **** 
 169:Core/Src/stm32l4xx_it.c ****   /* USER CODE END DebugMonitor_IRQn 1 */
 170:Core/Src/stm32l4xx_it.c **** }
 168              		.loc 1 170 1 view .LVU23
 169 0000 7047     		bx	lr
 170              		.cfi_endproc
 171              	.LFE138:
 173              		.section	.text.PendSV_Handler,"ax",%progbits
 174              		.align	1
 175              		.global	PendSV_Handler
 176              		.syntax unified
 177              		.thumb
 178              		.thumb_func
 180              	PendSV_Handler:
 181              	.LFB139:
 171:Core/Src/stm32l4xx_it.c **** 
ARM GAS  C:\Users\kpetr\AppData\Local\Temp\ccHS5E62.s 			page 7


 172:Core/Src/stm32l4xx_it.c **** /**
 173:Core/Src/stm32l4xx_it.c ****   * @brief This function handles Pendable request for system service.
 174:Core/Src/stm32l4xx_it.c ****   */
 175:Core/Src/stm32l4xx_it.c **** void PendSV_Handler(void)
 176:Core/Src/stm32l4xx_it.c **** {
 182              		.loc 1 176 1 view -0
 183              		.cfi_startproc
 184              		@ args = 0, pretend = 0, frame = 0
 185              		@ frame_needed = 0, uses_anonymous_args = 0
 186              		@ link register save eliminated.
 177:Core/Src/stm32l4xx_it.c ****   /* USER CODE BEGIN PendSV_IRQn 0 */
 178:Core/Src/stm32l4xx_it.c **** 
 179:Core/Src/stm32l4xx_it.c ****   /* USER CODE END PendSV_IRQn 0 */
 180:Core/Src/stm32l4xx_it.c ****   /* USER CODE BEGIN PendSV_IRQn 1 */
 181:Core/Src/stm32l4xx_it.c **** 
 182:Core/Src/stm32l4xx_it.c ****   /* USER CODE END PendSV_IRQn 1 */
 183:Core/Src/stm32l4xx_it.c **** }
 187              		.loc 1 183 1 view .LVU25
 188 0000 7047     		bx	lr
 189              		.cfi_endproc
 190              	.LFE139:
 192              		.section	.text.SysTick_Handler,"ax",%progbits
 193              		.align	1
 194              		.global	SysTick_Handler
 195              		.syntax unified
 196              		.thumb
 197              		.thumb_func
 199              	SysTick_Handler:
 200              	.LFB140:
 184:Core/Src/stm32l4xx_it.c **** 
 185:Core/Src/stm32l4xx_it.c **** /**
 186:Core/Src/stm32l4xx_it.c ****   * @brief This function handles System tick timer.
 187:Core/Src/stm32l4xx_it.c ****   */
 188:Core/Src/stm32l4xx_it.c **** void SysTick_Handler(void)
 189:Core/Src/stm32l4xx_it.c **** {
 201              		.loc 1 189 1 view -0
 202              		.cfi_startproc
 203              		@ args = 0, pretend = 0, frame = 0
 204              		@ frame_needed = 0, uses_anonymous_args = 0
 205 0000 08B5     		push	{r3, lr}
 206              		.cfi_def_cfa_offset 8
 207              		.cfi_offset 3, -8
 208              		.cfi_offset 14, -4
 190:Core/Src/stm32l4xx_it.c ****   /* USER CODE BEGIN SysTick_IRQn 0 */
 191:Core/Src/stm32l4xx_it.c **** 
 192:Core/Src/stm32l4xx_it.c ****   /* USER CODE END SysTick_IRQn 0 */
 193:Core/Src/stm32l4xx_it.c ****   HAL_IncTick();
 209              		.loc 1 193 3 view .LVU27
 210 0002 FFF7FEFF 		bl	HAL_IncTick
 211              	.LVL0:
 194:Core/Src/stm32l4xx_it.c ****   /* USER CODE BEGIN SysTick_IRQn 1 */
 195:Core/Src/stm32l4xx_it.c **** 
 196:Core/Src/stm32l4xx_it.c ****   /* USER CODE END SysTick_IRQn 1 */
 197:Core/Src/stm32l4xx_it.c **** }
 212              		.loc 1 197 1 is_stmt 0 view .LVU28
 213 0006 08BD     		pop	{r3, pc}
 214              		.cfi_endproc
ARM GAS  C:\Users\kpetr\AppData\Local\Temp\ccHS5E62.s 			page 8


 215              	.LFE140:
 217              		.section	.text.TIM6_DAC_IRQHandler,"ax",%progbits
 218              		.align	1
 219              		.global	TIM6_DAC_IRQHandler
 220              		.syntax unified
 221              		.thumb
 222              		.thumb_func
 224              	TIM6_DAC_IRQHandler:
 225              	.LFB141:
 198:Core/Src/stm32l4xx_it.c **** 
 199:Core/Src/stm32l4xx_it.c **** /******************************************************************************/
 200:Core/Src/stm32l4xx_it.c **** /* STM32L4xx Peripheral Interrupt Handlers                                    */
 201:Core/Src/stm32l4xx_it.c **** /* Add here the Interrupt Handlers for the used peripherals.                  */
 202:Core/Src/stm32l4xx_it.c **** /* For the available peripheral interrupt handler names,                      */
 203:Core/Src/stm32l4xx_it.c **** /* please refer to the startup file (startup_stm32l4xx.s).                    */
 204:Core/Src/stm32l4xx_it.c **** /******************************************************************************/
 205:Core/Src/stm32l4xx_it.c **** 
 206:Core/Src/stm32l4xx_it.c **** /**
 207:Core/Src/stm32l4xx_it.c ****   * @brief This function handles TIM6 global interrupt, DAC channel1 and channel2 underrun error in
 208:Core/Src/stm32l4xx_it.c ****   */
 209:Core/Src/stm32l4xx_it.c **** void TIM6_DAC_IRQHandler(void)
 210:Core/Src/stm32l4xx_it.c **** {
 226              		.loc 1 210 1 is_stmt 1 view -0
 227              		.cfi_startproc
 228              		@ args = 0, pretend = 0, frame = 0
 229              		@ frame_needed = 0, uses_anonymous_args = 0
 230 0000 08B5     		push	{r3, lr}
 231              		.cfi_def_cfa_offset 8
 232              		.cfi_offset 3, -8
 233              		.cfi_offset 14, -4
 211:Core/Src/stm32l4xx_it.c ****   /* USER CODE BEGIN TIM6_DAC_IRQn 0 */
 212:Core/Src/stm32l4xx_it.c ****   
 213:Core/Src/stm32l4xx_it.c ****   
 214:Core/Src/stm32l4xx_it.c ****   Uart_Transmit(SPEED_buffer);
 234              		.loc 1 214 3 view .LVU30
 235 0002 0D48     		ldr	r0, .L20
 236 0004 FFF7FEFF 		bl	Uart_Transmit
 237              	.LVL1:
 215:Core/Src/stm32l4xx_it.c ****   if(counter%5 == 0){
 238              		.loc 1 215 3 view .LVU31
 239              		.loc 1 215 13 is_stmt 0 view .LVU32
 240 0008 0C4B     		ldr	r3, .L20+4
 241 000a 1A68     		ldr	r2, [r3]
 242 000c 0C49     		ldr	r1, .L20+8
 243 000e 81FB0231 		smull	r3, r1, r1, r2
 244 0012 D317     		asrs	r3, r2, #31
 245 0014 C3EB6103 		rsb	r3, r3, r1, asr #1
 246 0018 03EB8303 		add	r3, r3, r3, lsl #2
 247              		.loc 1 215 5 view .LVU33
 248 001c 9A42     		cmp	r2, r3
 249 001e 07D0     		beq	.L19
 250              	.L17:
 216:Core/Src/stm32l4xx_it.c ****     SSD1306_UpdateScreen();
 217:Core/Src/stm32l4xx_it.c ****   }
 218:Core/Src/stm32l4xx_it.c ****   counter++;
 251              		.loc 1 218 3 is_stmt 1 view .LVU34
 252              		.loc 1 218 10 is_stmt 0 view .LVU35
ARM GAS  C:\Users\kpetr\AppData\Local\Temp\ccHS5E62.s 			page 9


 253 0020 064A     		ldr	r2, .L20+4
 254 0022 1368     		ldr	r3, [r2]
 255 0024 0133     		adds	r3, r3, #1
 256 0026 1360     		str	r3, [r2]
 219:Core/Src/stm32l4xx_it.c **** 
 220:Core/Src/stm32l4xx_it.c ****   /* USER CODE END TIM6_DAC_IRQn 0 */
 221:Core/Src/stm32l4xx_it.c ****   HAL_TIM_IRQHandler(&htim6);
 257              		.loc 1 221 3 is_stmt 1 view .LVU36
 258 0028 0648     		ldr	r0, .L20+12
 259 002a FFF7FEFF 		bl	HAL_TIM_IRQHandler
 260              	.LVL2:
 222:Core/Src/stm32l4xx_it.c ****   /* USER CODE BEGIN TIM6_DAC_IRQn 1 */
 223:Core/Src/stm32l4xx_it.c **** 
 224:Core/Src/stm32l4xx_it.c ****   /* USER CODE END TIM6_DAC_IRQn 1 */
 225:Core/Src/stm32l4xx_it.c **** }
 261              		.loc 1 225 1 is_stmt 0 view .LVU37
 262 002e 08BD     		pop	{r3, pc}
 263              	.L19:
 216:Core/Src/stm32l4xx_it.c ****   }
 264              		.loc 1 216 5 is_stmt 1 view .LVU38
 265 0030 FFF7FEFF 		bl	SSD1306_UpdateScreen
 266              	.LVL3:
 267 0034 F4E7     		b	.L17
 268              	.L21:
 269 0036 00BF     		.align	2
 270              	.L20:
 271 0038 00000000 		.word	SPEED_buffer
 272 003c 00000000 		.word	counter
 273 0040 67666666 		.word	1717986919
 274 0044 00000000 		.word	htim6
 275              		.cfi_endproc
 276              	.LFE141:
 278              		.section	.text.TIM7_IRQHandler,"ax",%progbits
 279              		.align	1
 280              		.global	TIM7_IRQHandler
 281              		.syntax unified
 282              		.thumb
 283              		.thumb_func
 285              	TIM7_IRQHandler:
 286              	.LFB142:
 226:Core/Src/stm32l4xx_it.c **** 
 227:Core/Src/stm32l4xx_it.c **** /**
 228:Core/Src/stm32l4xx_it.c ****   * @brief This function handles TIM7 global interrupt.
 229:Core/Src/stm32l4xx_it.c ****   */
 230:Core/Src/stm32l4xx_it.c **** void TIM7_IRQHandler(void)
 231:Core/Src/stm32l4xx_it.c **** {
 287              		.loc 1 231 1 view -0
 288              		.cfi_startproc
 289              		@ args = 0, pretend = 0, frame = 0
 290              		@ frame_needed = 0, uses_anonymous_args = 0
 291 0000 08B5     		push	{r3, lr}
 292              		.cfi_def_cfa_offset 8
 293              		.cfi_offset 3, -8
 294              		.cfi_offset 14, -4
 232:Core/Src/stm32l4xx_it.c ****   /* USER CODE BEGIN TIM7_IRQn 0 */
 233:Core/Src/stm32l4xx_it.c ****   Get_RPM();
 295              		.loc 1 233 3 view .LVU40
ARM GAS  C:\Users\kpetr\AppData\Local\Temp\ccHS5E62.s 			page 10


 296 0002 FFF7FEFF 		bl	Get_RPM
 297              	.LVL4:
 234:Core/Src/stm32l4xx_it.c **** 
 235:Core/Src/stm32l4xx_it.c ****   /* USER CODE END TIM7_IRQn 0 */
 236:Core/Src/stm32l4xx_it.c ****   HAL_TIM_IRQHandler(&htim7);
 298              		.loc 1 236 3 view .LVU41
 299 0006 0248     		ldr	r0, .L24
 300 0008 FFF7FEFF 		bl	HAL_TIM_IRQHandler
 301              	.LVL5:
 237:Core/Src/stm32l4xx_it.c ****   /* USER CODE BEGIN TIM7_IRQn 1 */
 238:Core/Src/stm32l4xx_it.c **** 
 239:Core/Src/stm32l4xx_it.c ****   /* USER CODE END TIM7_IRQn 1 */
 240:Core/Src/stm32l4xx_it.c **** }
 302              		.loc 1 240 1 is_stmt 0 view .LVU42
 303 000c 08BD     		pop	{r3, pc}
 304              	.L25:
 305 000e 00BF     		.align	2
 306              	.L24:
 307 0010 00000000 		.word	htim7
 308              		.cfi_endproc
 309              	.LFE142:
 311              		.global	counter
 312              		.section	.bss.counter,"aw",%nobits
 313              		.align	2
 316              	counter:
 317 0000 00000000 		.space	4
 318              		.text
 319              	.Letext0:
 320              		.file 2 "C:/Users/kpetr/AppData/Roaming/Code/User/globalStorage/bmd.stm32-for-vscode/@xpack-dev-to
 321              		.file 3 "C:/Users/kpetr/AppData/Roaming/Code/User/globalStorage/bmd.stm32-for-vscode/@xpack-dev-to
 322              		.file 4 "Drivers/CMSIS/Device/ST/STM32L4xx/Include/stm32l432xx.h"
 323              		.file 5 "Drivers/STM32L4xx_HAL_Driver/Inc/stm32l4xx_hal_def.h"
 324              		.file 6 "Drivers/STM32L4xx_HAL_Driver/Inc/stm32l4xx_hal_dma.h"
 325              		.file 7 "Drivers/STM32L4xx_HAL_Driver/Inc/stm32l4xx_hal_tim.h"
 326              		.file 8 "Core/Inc/globals.h"
 327              		.file 9 "Core/Inc/ssd1306.h"
 328              		.file 10 "Drivers/STM32L4xx_HAL_Driver/Inc/stm32l4xx_hal.h"
ARM GAS  C:\Users\kpetr\AppData\Local\Temp\ccHS5E62.s 			page 11

